cnumpy.core.multiarray
_reconstruct
p0
(cnumpy
ndarray
p1
(I0
tp2
S'b'
p3
tp4
Rp5
(I1
(I1037
I17
tp6
cnumpy
dtype
p7
(S'O8'
p8
I0
I1
tp9
Rp10
(I3
S'|'
p11
NNNI-1
I-1
I63
tp12
bI00
(lp13
VPOM
p14
aI5
acdatetime
date
p15
(S'\x07\xdf\t\x0b'
p16
tp17
Rp18
aV1teku0000
p19
aI95364
aI76977
aI01
aF5973.0
aF18679.0
aF12076.0
aF3590.0
aF6685.0
aF2726.0
aF840.0
aF5897.0
aF10011.0
aF28887.0
ag14
aI5
ag18
aV1teku0001
p20
aI43292
aI30693
aI01
aF6235.0
aF7488.0
aF983.0
aF6058.0
aF5802.0
aF2527.0
aF1374.0
aF6566.0
aF0.0
aF6259.0
ag14
aI5
ag18
aV1teku0002
p21
aI123068
aI135302
aI01
aF12755.0
aF15395.0
aF13533.0
aF11994.0
aF14295.0
aF8012.0
aF247.0
aF13381.0
aF8495.0
aF24961.0
ag14
aI5
ag18
aV1teku0003
p22
aI43293
aI35587
aI01
aF6111.0
aF11053.0
aF1075.0
aF5516.0
aF8669.0
aF3567.0
aF1938.0
aF5293.0
aF30.0
aF41.0
ag14
aI5
ag18
aV1teku0004
p23
aI91136
aI66741
aI01
aF13768.0
aF13986.0
aF7051.0
aF51.0
aF11242.0
aF13671.0
aF13280.0
aF12417.0
aF3889.0
aF1781.0
aV\u307d\u3093\u305f
p24
aI3
ag15
(S'\x07\xdf\t\x0b'
p25
tp26
Rp27
aV1teku0005
p28
aI0
aI0
aNaF0.0
aF0.0
aF0.0
aF0.0
aF0.0
aF0.0
aF0.0
aF0.0
aF0.0
aF0.0
ag24
aI3
ag27
aV1teku0006
p29
aI172684
aI116614
aNaF1648.0
aF25210.0
aF14492.0
aF12849.0
aF13972.0
aF24820.0
aF14484.0
aF26760.0
aF17382.0
aF21067.0
ag24
aI3
ag27
aV1teku0007
p30
aI0
aI0
aNaF0.0
aF0.0
aF0.0
aF0.0
aF0.0
aF0.0
aF0.0
aF0.0
aF0.0
aF0.0
aV\u30ab\u30c3\u30d1\u3055\u3093
p31
aI1
ag15
(S'\x07\xdf\t\x0b'
p32
tp33
Rp34
aV1teku0008
p35
aI0
aI0
aNaF0.0
aF0.0
aF0.0
aF0.0
aF0.0
aF0.0
aF0.0
aF0.0
aF0.0
aF0.0
aV\u30c6\u30cb\u30b9\u3063\u3053\u304f\u3089\u3076
p36
aI5
ag15
(S'\x07\xdf\t\x0b'
p37
tp38
Rp39
aV1teku0009
p40
aI147382
aI136639
aNaF6260.0
aF11774.0
aF8250.0
aF8023.0
aF11630.0
aF12594.0
aF14888.0
aF13644.0
aF5688.0
aF54631.0
ag36
aI5
ag39
aV1teku0010
p41
aI0
aI0
aNaF0.0
aF0.0
aF0.0
aF0.0
aF0.0
aF0.0
aF0.0
aF0.0
aF0.0
aF0.0
ag36
aI5
ag39
aV1teku0011
p42
aI0
aI0
aNaF0.0
aF0.0
aF0.0
aF0.0
aF0.0
aF0.0
aF0.0
aF0.0
aF0.0
aF0.0
ag36
aI5
ag39
aV1teku0012
p43
aI86461
aI45236
aNaF10444.0
aF9521.0
aF9166.0
aF6162.0
aF4230.0
aF7797.0
aF10584.0
aF10017.0
aF6052.0
aF12488.0
ag36
aI5
ag39
aV1teku0013
p44
aI115486
aI82492
aNaF10206.0
aF13463.0
aF12978.0
aF12694.0
aF11225.0
aF18624.0
aF13178.0
aF7064.0
aF5922.0
aF10132.0
aV\uff2b\uff41\uff50\uff50\uff41\u3055\u3093
p45
aI1
ag15
(S'\x07\xdf\t\x0b'
p46
tp47
Rp48
aV1teku0014
p49
aI47240
aI33877
aNaF6518.0
aF906.0
aF2377.0
aF5600.0
aF5728.0
aF5357.0
aF4459.0
aF3772.0
aF3994.0
aF8529.0
aV\uff32\uff25\u3061\u3083\u3093
p50
aI1
ag15
(S'\x07\xdf\t\x0b'
p51
tp52
Rp53
aV1teku0015
p54
aI105443
aI88434
aI01
aF4250.0
aF21189.0
aF11830.0
aF3096.0
aF17531.0
aF9105.0
aF6504.0
aF10952.0
aF2358.0
aF18628.0
aV\u3068\u3082\u3061\u3083\u3093
p55
aI1
ag15
(S'\x07\xdf\t\x0b'
p56
tp57
Rp58
aV1teku0016
p59
aI0
aI0
aI00
aF0.0
aF0.0
aF0.0
aF0.0
aF0.0
aF0.0
aF0.0
aF0.0
aF0.0
aF0.0
aV\u767d\u9df9\u4f1a
p60
aI3
ag15
(S'\x07\xdf\t\x0b'
p61
tp62
Rp63
aV1teku0017
p64
aI49226
aI46111
aNaF1848.0
aF12090.0
aF11521.0
aF1929.0
aF2884.0
aF1103.0
aF2116.0
aF2452.0
aF12155.0
aF1128.0
ag60
aI3
ag63
aV1teku0018
p65
aI48976
aI44697
aNaF6851.0
aF4835.0
aF6330.0
aF2018.0
aF7943.0
aF3478.0
aF1714.0
aF3388.0
aF593.0
aF11826.0
ag60
aI3
ag63
aV1teku0019
p66
aI80272
aI61179
aNaF7029.0
aF10612.0
aF11126.0
aF3843.0
aF7163.0
aF6517.0
aF3980.0
aF4821.0
aF12489.0
aF12692.0
aV\u30c1\u30fc\u30e0 \u30b4\u30f3
p67
aI3
ag15
(S'\x07\xdf\t\x0b'
p68
tp69
Rp70
aV1teku0020
p71
aI134363
aI99287
aI01
aF2233.0
aF24110.0
aF19891.0
aF12365.0
aF3438.0
aF10156.0
aF8154.0
aF21710.0
aF19571.0
aF12735.0
ag67
aI3
ag70
aV1teku0021
p72
aI112890
aI111057
aI01
aF3502.0
aF15381.0
aF21510.0
aF3852.0
aF10515.0
aF15013.0
aF2049.0
aF8523.0
aF18998.0
aF13547.0
ag67
aI3
ag70
aV1teku0022
p73
aI166764
aI142946
aI01
aF4588.0
aF21922.0
aF24540.0
aF10354.0
aF16106.0
aF13601.0
aF6747.0
aF20107.0
aF25908.0
aF22891.0
aV\uff36oice\u98a8
p74
aI5
ag15
(S'\x07\xdf\t\x0b'
p75
tp76
Rp77
aV1teku0023
p78
aI142075
aI96960
aNaF14206.0
aF16389.0
aF18954.0
aF13264.0
aF9439.0
aF14123.0
aF12378.0
aF12329.0
aF10684.0
aF20309.0
ag74
aI5
ag77
aV1teku0024
p79
aI0
aI0
aNaF0.0
aF0.0
aF0.0
aF0.0
aF0.0
aF0.0
aF0.0
aF0.0
aF0.0
aF0.0
ag74
aI5
ag77
aV1teku0025
p80
aI37400
aI29311
aNaF1415.0
aF3769.0
aF604.0
aF7783.0
aF5231.0
aF5818.0
aF2818.0
aF3310.0
aF5407.0
aF1245.0
ag74
aI5
ag77
aV1teku0026
p81
aI62178
aI46396
aNaF4861.0
aF9486.0
aF13280.0
aF3726.0
aF6196.0
aF4159.0
aF2670.0
aF7584.0
aF5086.0
aF5130.0
ag74
aI5
ag77
aV1teku0027
p82
aI75405
aI59610
aNaF8909.0
aF6808.0
aF10803.0
aF11194.0
aF8863.0
aF14170.0
aF2506.0
aF1552.0
aF7227.0
aF3373.0
aV\u30e9\u30d6
p83
aI1
ag15
(S'\x07\xdf\t\x0b'
p84
tp85
Rp86
aV1teku0028
p87
aI194616
aI163419
aI01
aF16236.0
aF17132.0
aF24202.0
aF14818.0
aF19099.0
aF25849.0
aF21014.0
aF21339.0
aF23840.0
aF11087.0
aV\u3054\u3080\u305e\u30fc\u308a
p88
aI5
ag15
(S'\x07\xdf\t\x0b'
p89
tp90
Rp91
aV1teku0029
p92
aI0
aI0
aNaF0.0
aF0.0
aF0.0
aF0.0
aF0.0
aF0.0
aF0.0
aF0.0
aF0.0
aF0.0
ag88
aI5
ag91
aV1teku0030
p93
aI95371
aI78984
aNaF9825.0
aF17307.0
aF16416.0
aF6803.0
aF5197.0
aF0.0
aF0.0
aF5983.0
aF8553.0
aF25287.0
ag88
aI5
ag91
aV1teku0031
p94
aI95207
aI75662
aNaF4014.0
aF20662.0
aF11904.0
aF2879.0
aF4146.0
aF3608.0
aF2369.0
aF9422.0
aF22517.0
aF13686.0
ag88
aI5
ag91
aV1teku0032
p95
aI63999
aI57265
aNaF6439.0
aF7839.0
aF4087.0
aF11765.0
aF7167.0
aF6916.0
aF6538.0
aF2482.0
aF3315.0
aF7451.0
ag88
aI5
ag91
aV1teku0033
p96
aI223471
aI151899
aNaF14966.0
aF27167.0
aF17297.0
aF19064.0
aF19615.0
aF18089.0
aF13301.0
aF20616.0
aF30270.0
aF43086.0
aV\uff73\uff6b\uff70\uff78\u3092\u611b\u3059\u308b\u4eba
p97
aI1
ag15
(S'\x07\xdf\t\x0b'
p98
tp99
Rp100
aV1teku0035
p101
aI0
aI0
aNaF0.0
aF0.0
aF0.0
aF0.0
aF0.0
aF0.0
aF0.0
aF0.0
aF0.0
aF0.0
aV\uff26\u30d5\u30a1\u30a4\u30d0\u30a1\u30fc
p102
aI5
ag15
(S'\x07\xdf\t\x0b'
p103
tp104
Rp105
aV1teku0036
p106
aI72793
aI68048
aI01
aF8427.0
aF6416.0
aF7466.0
aF6168.0
aF4469.0
aF14227.0
aF1531.0
aF3843.0
aF9898.0
aF10348.0
ag102
aI5
ag105
aV1teku0037
p107
aI144859
aI101744
aI01
aF8038.0
aF16618.0
aF15806.0
aF11987.0
aF15379.0
aF15954.0
aF6446.0
aF8232.0
aF12962.0
aF33437.0
ag102
aI5
ag105
aV1teku0038
p108
aI64833
aI48006
aI01
aF6191.0
aF10134.0
aF2566.0
aF7281.0
aF3665.0
aF8127.0
aF2460.0
aF5810.0
aF9452.0
aF9147.0
ag102
aI5
ag105
aV1teku0039
p109
aI92173
aI69501
aI01
aF5455.0
aF13147.0
aF7376.0
aF6747.0
aF8157.0
aF12883.0
aF7620.0
aF5312.0
aF9893.0
aF15583.0
ag102
aI5
ag105
aV1teku0040
p110
aI79965
aI71230
aI01
aF6519.0
aF13529.0
aF6536.0
aF6804.0
aF6646.0
aF8422.0
aF4876.0
aF3953.0
aF10513.0
aF12167.0
aV5\u4eba\u3060\u3063\u305f\u3089\u3067\u304d\u308b\u304b\u3082
p111
aI5
ag15
(S'\x07\xdf\t\x0b'
p112
tp113
Rp114
aV1teku0041
p115
aI71023
aI52117
aNaF4901.0
aF5961.0
aF3012.0
aF2699.0
aF3224.0
aF3598.0
aF1413.0
aF6470.0
aF25205.0
aF14540.0
ag111
aI5
ag114
aV1teku0042
p116
aI26100
aI20595
aNaF1785.0
aF60.0
aF616.0
aF8156.0
aF1330.0
aF757.0
aF2944.0
aF4300.0
aF134.0
aF6018.0
ag111
aI5
ag114
aV1teku0043
p117
aI72162
aI52686
aNaF6186.0
aF6771.0
aF3535.0
aF10843.0
aF6547.0
aF5837.0
aF7745.0
aF7330.0
aF13290.0
aF4078.0
ag111
aI5
ag114
aV1teku0044
p118
aI149042
aI134992
aNaF8199.0
aF42699.0
aF50019.0
aF14910.0
aF3988.0
aF5019.0
aF2687.0
aF5944.0
aF14576.0
aF1001.0
ag111
aI5
ag114
aV1teku0045
p119
aI70597
aI51330
aNaF7360.0
aF8150.0
aF8479.0
aF7467.0
aF10319.0
aF7799.0
aF3391.0
aF2488.0
aF6293.0
aF8851.0
aV\u5bae\u90e8\u30a6\u30a9\u30fc\u30ad\u30f3\u30b0\u30af\u30e9\u30d6
p120
aI1
ag15
(S'\x07\xdf\t\x0b'
p121
tp122
Rp123
aV1teku0046
p124
aI55220
aI43554
aNaF400.0
aF0.0
aF8558.0
aF8532.0
aF10666.0
aF5068.0
aF4479.0
aF2607.0
aF11810.0
aF3100.0
aV\u30de\u30ea\u30aa\u30d6\u30e9\u30b6\u30fc\u30ba
p125
aI5
ag15
(S'\x07\xdf\t\x0b'
p126
tp127
Rp128
aV1teku0047
p129
aI41299
aI31543
aNaF5000.0
aF6133.0
aF1164.0
aF235.0
aF4650.0
aF4839.0
aF1573.0
aF1004.0
aF4093.0
aF12608.0
ag125
aI5
ag128
aV1teku0048
p130
aI60222
aI45385
aNaF3826.0
aF2499.0
aF11277.0
aF2370.0
aF4241.0
aF7094.0
aF2491.0
aF10802.0
aF10220.0
aF5402.0
ag125
aI5
ag128
aV1teku0049
p131
aI32416
aI24973
aNaF2063.0
aF8203.0
aF1033.0
aF753.0
aF3472.0
aF400.0
aF960.0
aF1315.0
aF9762.0
aF4455.0
ag125
aI5
ag128
aV1teku0050
p132
aI67872
aI65627
aNaF16492.0
aF12550.0
aF11267.0
aF7193.0
aF1113.0
aF2284.0
aF1736.0
aF1843.0
aF13232.0
aF162.0
ag125
aI5
ag128
aV1teku0051
p133
aI0
aI0
aNaF0.0
aF0.0
aF0.0
aF0.0
aF0.0
aF0.0
aF0.0
aF0.0
aF0.0
aF0.0
aV\u304f\u308a\u306e\u6728
p134
aI3
ag15
(S'\x07\xdf\t\x0b'
p135
tp136
Rp137
aV1teku0052
p138
aI78664
aI59313
aI01
aF9873.0
aF22888.0
aF7359.0
aF9496.0
aF3626.0
aF3381.0
aF300.0
aF8198.0
aF3221.0
aF10322.0
ag134
aI3
ag137
aV1teku0053
p139
aI41525
aI31160
aI01
aF6870.0
aF19799.0
aF972.0
aF7674.0
aF922.0
aF2690.0
aF0.0
aF0.0
aF2598.0
aF0.0
ag134
aI3
ag137
aV1teku0054
p140
aI89352
aI70541
aI01
aF8616.0
aF23180.0
aF18217.0
aF3851.0
aF8920.0
aF2361.0
aF2666.0
aF6566.0
aF8959.0
aF6016.0
aV\u30a6\u30fc\u30b5\u30f3
p141
aI5
ag15
(S'\x07\xdf\t\x0b'
p142
tp143
Rp144
aV1teku0055
p145
aI0
aI0
aNaF0.0
aF0.0
aF0.0
aF0.0
aF0.0
aF0.0
aF0.0
aF0.0
aF0.0
aF0.0
ag141
aI5
ag144
aV1teku0056
p146
aI0
aI0
aNaF0.0
aF0.0
aF0.0
aF0.0
aF0.0
aF0.0
aF0.0
aF0.0
aF0.0
aF0.0
ag141
aI5
ag144
aV1teku0057
p147
aI102105
aI81056
aNaF12795.0
aF9298.0
aF13598.0
aF12945.0
aF13516.0
aF11061.0
aF8698.0
aF3875.0
aF8147.0
aF8172.0
ag141
aI5
ag144
aV1teku0058
p148
aI27896
aI21867
aNaF791.0
aF272.0
aF0.0
aF0.0
aF6044.0
aF8683.0
aF9147.0
aF2959.0
aF0.0
aF0.0
ag141
aI5
ag144
aV1teku0059
p149
aI0
aI0
aNaF0.0
aF0.0
aF0.0
aF0.0
aF0.0
aF0.0
aF0.0
aF0.0
aF0.0
aF0.0
aV\u30c1\u30fc\u30e0\uff2b-\uff3a\uff25\uff32\uff2f
p150
aI5
ag15
(S'\x07\xdf\t\x0b'
p151
tp152
Rp153
aV1teku0060
p154
aI0
aI0
aNaF0.0
aF0.0
aF0.0
aF0.0
aF0.0
aF0.0
aF0.0
aF0.0
aF0.0
aF0.0
ag150
aI5
ag153
aV1teku0061
p155
aI48354
aI34932
aNaF4709.0
aF3116.0
aF2245.0
aF5006.0
aF6423.0
aF3291.0
aF2833.0
aF4054.0
aF7478.0
aF9199.0
ag150
aI5
ag153
aV1teku0062
p156
aI0
aI0
aNaF0.0
aF0.0
aF0.0
aF0.0
aF0.0
aF0.0
aF0.0
aF0.0
aF0.0
aF0.0
ag150
aI5
ag153
aV1teku0063
p157
aI49719
aI35377
aNaF3786.0
aF7482.0
aF5062.0
aF4743.0
aF5408.0
aF4859.0
aF4677.0
aF3955.0
aF7335.0
aF2412.0
ag150
aI5
ag153
aV1teku0064
p158
aI106974
aI80912
aNaF9137.0
aF19393.0
aF15014.0
aF2815.0
aF6186.0
aF3466.0
aF12197.0
aF8120.0
aF14283.0
aF16363.0
aV\u5317\u5ddd\u5bb6
p159
aI1
ag15
(S'\x07\xdf\t\x0b'
p160
tp161
Rp162
aV1teku0065
p163
aI0
aI0
aNaF0.0
aF0.0
aF0.0
aF0.0
aF0.0
aF0.0
aF0.0
aF0.0
aF0.0
aF0.0
aV240
p164
aI1
ag15
(S'\x07\xdf\t\x0b'
p165
tp166
Rp167
aV1teku0066
p168
aI104358
aI71416
aI01
aF7714.0
aF11530.0
aF11977.0
aF9460.0
aF16702.0
aF4322.0
aF4530.0
aF13865.0
aF16060.0
aF8198.0
aV\u7537\uff13\u4eba\u7d44
p169
aI3
ag15
(S'\x07\xdf\t\x0b'
p170
tp171
Rp172
aV1teku0067
p173
aI0
aI0
aNaF0.0
aF0.0
aF0.0
aF0.0
aF0.0
aF0.0
aF0.0
aF0.0
aF0.0
aF0.0
ag169
aI3
ag172
aV1teku0068
p174
aI0
aI0
aNaF0.0
aF0.0
aF0.0
aF0.0
aF0.0
aF0.0
aF0.0
aF0.0
aF0.0
aF0.0
ag169
aI3
ag172
aV1teku0069
p175
aI0
aI0
aNaF0.0
aF0.0
aF0.0
aF0.0
aF0.0
aF0.0
aF0.0
aF0.0
aF0.0
aF0.0
aV\u30b3\u30b9\u30e2\u30b9
p176
aI3
ag15
(S'\x07\xdf\t\x0b'
p177
tp178
Rp179
aV1teku0070
p180
aI0
aI0
aI00
aF0.0
aF0.0
aF0.0
aF0.0
aF0.0
aF0.0
aF0.0
aF0.0
aF0.0
aF0.0
ag176
aI3
ag179
aV1teku0071
p181
aI52015
aI28022
aI00
aF0.0
aF7919.0
aF9373.0
aF7525.0
aF4656.0
aF8045.0
aF2042.0
aF0.0
aF5132.0
aF7323.0
ag176
aI3
ag179
aV1teku0072
p182
aI0
aI0
aI00
aF0.0
aF0.0
aF0.0
aF0.0
aF0.0
aF0.0
aF0.0
aF0.0
aF0.0
aF0.0
aV\u30c1\u30fc\u30e0\u30fb\u30d5\u30b8\u30a4
p183
aI3
ag15
(S'\x07\xdf\t\x0b'
p184
tp185
Rp186
aV1teku0073
p187
aI100181
aI67015
aNaF143.0
aF11670.0
aF11222.0
aF12037.0
aF10408.0
aF11753.0
aF3223.0
aF11991.0
aF9793.0
aF17941.0
ag183
aI3
ag186
aV1teku0074
p188
aI0
aI0
aNaF0.0
aF0.0
aF0.0
aF0.0
aF0.0
aF0.0
aF0.0
aF0.0
aF0.0
aF0.0
ag183
aI3
ag186
aV1teku0075
p189
aI0
aI0
aNaF0.0
aF0.0
aF0.0
aF0.0
aF0.0
aF0.0
aF0.0
aF0.0
aF0.0
aF0.0
aV\u5730\u9053\u306b\u30a6\u30a9\u30fc\u30ad\u30f3\u30b0
p190
aI1
ag15
(S'\x07\xdf\t\x0b'
p191
tp192
Rp193
aV1teku0076
p194
aI0
aI0
aNaF0.0
aF0.0
aF0.0
aF0.0
aF0.0
aF0.0
aF0.0
aF0.0
aF0.0
aF0.0
aV\u30cf\u30b8\u30e1
p195
aI1
ag15
(S'\x07\xdf\t\x0b'
p196
tp197
Rp198
aV1teku0077
p199
aI0
aI0
aNaF0.0
aF0.0
aF0.0
aF0.0
aF0.0
aF0.0
aF0.0
aF0.0
aF0.0
aF0.0
aV\u30d0\u30e0\u30fc
p200
aI1
ag15
(S'\x07\xdf\t\x0b'
p201
tp202
Rp203
aV1teku0078
p204
aI147834
aI108850
aI01
aF21101.0
aF1800.0
aF9921.0
aF15026.0
aF16982.0
aF21249.0
aF11070.0
aF26436.0
aF13940.0
aF10309.0
aV\uff22\uff33\uff11\uff11
p205
aI3
ag15
(S'\x07\xdf\t\x0b'
p206
tp207
Rp208
aV1teku0079
p209
aI43154
aI30260
aI00
aF3671.0
aF2192.0
aF293.0
aF5704.0
aF7282.0
aF1815.0
aF3162.0
aF2639.0
aF8063.0
aF8333.0
ag205
aI3
ag208
aV1teku0080
p210
aI65966
aI35037
aI00
aF4059.0
aF3030.0
aF7339.0
aF10563.0
aF2902.0
aF5558.0
aF3207.0
aF5057.0
aF12674.0
aF11577.0
ag205
aI3
ag208
aV1teku0081
p211
aI67771
aI49223
aI00
aF6066.0
aF7493.0
aF6586.0
aF6722.0
aF9389.0
aF4626.0
aF3301.0
aF6059.0
aF4688.0
aF12841.0
aV\u30a6\u30a9\u30fc\u30ad\u30f3\u30b0\u30fb\u30d9\u30a2
p212
aI3
ag15
(S'\x07\xdf\t\x0b'
p213
tp214
Rp215
aV1teku0082
p216
aI115266
aI81298
aNaF12679.0
aF13972.0
aF15626.0
aF10529.0
aF10739.0
aF15142.0
aF8038.0
aF10052.0
aF8063.0
aF10426.0
ag212
aI3
ag215
aV1teku0083
p217
aI0
aI0
aNaF0.0
aF0.0
aF0.0
aF0.0
aF0.0
aF0.0
aF0.0
aF0.0
aF0.0
aF0.0
ag212
aI3
ag215
aV1teku0084
p218
aI58582
aI41079
aNaF6246.0
aF4028.0
aF4369.0
aF8763.0
aF7992.0
aF6692.0
aF3879.0
aF8479.0
aF2029.0
aF6105.0
aV\u3072\u3089\u3081
p219
aI1
ag15
(S'\x07\xdf\t\x0b'
p220
tp221
Rp222
aV1teku0086
p223
aI58582
aI44557
aNaF5545.0
aF6618.0
aF6048.0
aF7420.0
aF6116.0
aF3524.0
aF7610.0
aF9485.0
aF2671.0
aF3545.0
aV\u3072\u305f\u3059\u3089\uff12
p224
aI1
ag15
(S'\x07\xdf\t\x0b'
p225
tp226
Rp227
aV1teku0087
p228
aI60299
aI45603
aNaF5753.0
aF3453.0
aF5427.0
aF7529.0
aF6363.0
aF3094.0
aF5951.0
aF11406.0
aF6061.0
aF5262.0
aV\u307e\u307f\u3061\u3083\u3093
p229
aI1
ag15
(S'\x07\xdf\t\x0b'
p230
tp231
Rp232
aV1teku0088
p233
aI0
aI0
aI00
aF0.0
aF0.0
aF0.0
aF0.0
aF0.0
aF0.0
aF0.0
aF0.0
aF0.0
aF0.0
aV\u30c6\u30af\u30c6\u30af
p234
aI1
ag15
(S'\x07\xdf\t\x0b'
p235
tp236
Rp237
aV1teku0089
p238
aI0
aI0
aNaF0.0
aF0.0
aF0.0
aF0.0
aF0.0
aF0.0
aF0.0
aF0.0
aF0.0
aF0.0
aV\u30b6\u30fb\u30ed\u30f3\u30ea\u30fcknight of SLC
p239
aI1
ag15
(S'\x07\xdf\t\x0b'
p240
tp241
Rp242
aV1teku0090
p243
aI118963
aI76787
aI01
aF14645.0
aF15719.0
aF10310.0
aF15725.0
aF12105.0
aF8694.0
aF5907.0
aF12357.0
aF14646.0
aF8855.0
aVAzuki
p244
aI1
ag15
(S'\x07\xdf\t\x0b'
p245
tp246
Rp247
aV1teku0092
p248
aI21121
aI14639
aI00
aF1251.0
aF3721.0
aF823.0
aF1471.0
aF1364.0
aF1330.0
aF469.0
aF4164.0
aF4449.0
aF2079.0
aV\u3044\u308f
p249
aI1
ag15
(S'\x07\xdf\t\x0b'
p250
tp251
Rp252
aV1teku0093
p253
aI50681
aI44987
aNaF4318.0
aF4822.0
aF11356.0
aF3943.0
aF6261.0
aF5908.0
aF1935.0
aF6835.0
aF1769.0
aF3534.0
aV\u306d\u3048\u3061\u3083\u3093
p254
aI1
ag15
(S'\x07\xdf\t\x0b'
p255
tp256
Rp257
aV1teku0094
p258
aI0
aI0
aNaF0.0
aF0.0
aF0.0
aF0.0
aF0.0
aF0.0
aF0.0
aF0.0
aF0.0
aF0.0
aV\u307e\u30b5\u30eb\u3055\u3093\u305d\u306e\uff11
p259
aI3
ag15
(S'\x07\xdf\t\x0b'
p260
tp261
Rp262
aV1teku0095
p263
aI68664
aI57360
aNaF2562.0
aF2952.0
aF9413.0
aF3819.0
aF5243.0
aF6288.0
aF904.0
aF17502.0
aF12239.0
aF7742.0
ag259
aI3
ag262
aV1teku0096
p264
aI41031
aI30703
aNaF4695.0
aF630.0
aF3364.0
aF3849.0
aF345.0
aF3702.0
aF565.0
aF5087.0
aF12015.0
aF6779.0
ag259
aI3
ag262
aV1teku0097
p265
aI48740
aI36397
aNaF1740.0
aF2708.0
aF3618.0
aF7486.0
aF4532.0
aF4686.0
aF718.0
aF5563.0
aF13801.0
aF3888.0
aV\u307e\u30b5\u30eb\u3055\u3093\u305d\u306e\uff12
p266
aI3
ag15
(S'\x07\xdf\t\x0b'
p267
tp268
Rp269
aV1teku0098
p270
aI46479
aI30724
aNaF2519.0
aF5877.0
aF5833.0
aF1527.0
aF7010.0
aF5243.0
aF2543.0
aF4503.0
aF8153.0
aF3271.0
ag266
aI3
ag269
aV1teku0099
p271
aI78660
aI61026
aNaF8914.0
aF7920.0
aF5756.0
aF4958.0
aF9472.0
aF8259.0
aF6911.0
aF11424.0
aF12374.0
aF2672.0
ag266
aI3
ag269
aV1teku0100
p272
aI71797
aI50715
aNaF6166.0
aF7816.0
aF5453.0
aF6916.0
aF6505.0
aF6850.0
aF7476.0
aF7397.0
aF8147.0
aF9071.0
aVBeauty Sisters 3
p273
aI3
ag15
(S'\x07\xdf\t\x0b'
p274
tp275
Rp276
aV1teku0101
p277
aI40012
aI29039
aNaF7158.0
aF4549.0
aF702.0
aF5974.0
aF1310.0
aF4001.0
aF3712.0
aF4043.0
aF6147.0
aF2416.0
ag273
aI3
ag276
aV1teku0102
p278
aI96117
aI48800
aNaF9547.0
aF18253.0
aF18459.0
aF5981.0
aF5786.0
aF7521.0
aF764.0
aF6054.0
aF14271.0
aF9481.0
ag273
aI3
ag276
aV1teku0103
p279
aI71413
aI55581
aNaF9818.0
aF8054.0
aF9222.0
aF6326.0
aF4953.0
aF6985.0
aF4653.0
aF7537.0
aF6190.0
aF7675.0
aVTeam\u4e09\u4e16\u4ee3
p280
aI3
ag15
(S'\x07\xdf\t\x0b'
p281
tp282
Rp283
aV1teku0104
p284
aI65043
aI46398
aI01
aF8021.0
aF2820.0
aF1807.0
aF9746.0
aF3317.0
aF5157.0
aF4081.0
aF1782.0
aF4878.0
aF23434.0
ag280
aI3
ag283
aV1teku0105
p285
aI91894
aI66199
aI01
aF4679.0
aF7594.0
aF23944.0
aF5327.0
aF5035.0
aF4723.0
aF5320.0
aF4110.0
aF6925.0
aF24237.0
ag280
aI3
ag283
aV1teku0106
p286
aI111216
aI78306
aI01
aF9625.0
aF9914.0
aF9355.0
aF8346.0
aF11197.0
aF7748.0
aF11514.0
aF11749.0
aF9826.0
aF21942.0
aV\u30ef\u30eb\u30b5\u2015A50
p287
aI5
ag15
(S'\x07\xdf\t\x0b'
p288
tp289
Rp290
aV1teku0107
p291
aI118085
aI94796
aI01
aF9075.0
aF19564.0
aF24217.0
aF6698.0
aF13751.0
aF11008.0
aF1181.0
aF3962.0
aF9607.0
aF19022.0
ag287
aI5
ag290
aV1teku0108
p292
aI130721
aI101748
aI01
aF8891.0
aF13182.0
aF24300.0
aF9148.0
aF8647.0
aF9890.0
aF2466.0
aF10749.0
aF21698.0
aF21750.0
ag287
aI5
ag290
aV1teku0109
p293
aI80616
aI54872
aI01
aF10527.0
aF12035.0
aF6373.0
aF15028.0
aF6271.0
aF12090.0
aF6432.0
aF6045.0
aF2117.0
aF3698.0
ag287
aI5
ag290
aV1teku0110
p294
aI66550
aI46503
aI01
aF8611.0
aF8457.0
aF1720.0
aF6806.0
aF8438.0
aF6489.0
aF9109.0
aF8739.0
aF2368.0
aF5813.0
ag287
aI5
ag290
aV1teku0111
p295
aI126546
aI106416
aI01
aF10214.0
aF13506.0
aF15082.0
aF11940.0
aF13461.0
aF6880.0
aF13784.0
aF15591.0
aF11533.0
aF14555.0
aV\u4fdd\u533b\u30c8\u30ea\u30aa
p296
aI3
ag15
(S'\x07\xdf\t\x0b'
p297
tp298
Rp299
aV1teku0112
p300
aI48656
aI42441
aNaF4172.0
aF5959.0
aF6488.0
aF3797.0
aF4314.0
aF4179.0
aF1542.0
aF3019.0
aF5592.0
aF9594.0
ag296
aI3
ag299
aV1teku0113
p301
aI51969
aI37757
aNaF3175.0
aF3015.0
aF6178.0
aF2980.0
aF3023.0
aF12312.0
aF5063.0
aF4177.0
aF7286.0
aF4760.0
ag296
aI3
ag299
aV1teku0114
p302
aI85035
aI66290
aNaF7367.0
aF8564.0
aF6044.0
aF6446.0
aF15805.0
aF4024.0
aF4566.0
aF15879.0
aF12370.0
aF3970.0
aV\u5d50
p303
aI5
ag15
(S'\x07\xdf\t\x0b'
p304
tp305
Rp306
aV1teku0115
p307
aI0
aI0
aNaF0.0
aF0.0
aF0.0
aF0.0
aF0.0
aF0.0
aF0.0
aF0.0
aF0.0
aF0.0
ag303
aI5
ag306
aV1teku0116
p308
aI42357
aI32699
aNaF3088.0
aF2495.0
aF5217.0
aF2493.0
aF8550.0
aF2240.0
aF4138.0
aF2397.0
aF4810.0
aF6929.0
ag303
aI5
ag306
aV1teku0117
p309
aI39995
aI28345
aNaF1749.0
aF7001.0
aF7998.0
aF1567.0
aF1068.0
aF1076.0
aF2000.0
aF1307.0
aF7522.0
aF8707.0
ag303
aI5
ag306
aV1teku0118
p310
aI0
aI0
aNaF0.0
aF0.0
aF0.0
aF0.0
aF0.0
aF0.0
aF0.0
aF0.0
aF0.0
aF0.0
ag303
aI5
ag306
aV1teku0119
p311
aI65237
aI50194
aNaF2546.0
aF10705.0
aF5239.0
aF5836.0
aF4632.0
aF4247.0
aF3940.0
aF3982.0
aF10417.0
aF13693.0
aV\u3042\u3044\u30592\u500b\u76ee
p312
aI3
ag15
(S'\x07\xdf\t\x0b'
p313
tp314
Rp315
aV1teku0120
p316
aI109544
aI71961
aNaF13437.0
aF14047.0
aF7264.0
aF7485.0
aF6070.0
aF14249.0
aF3318.0
aF7305.0
aF20347.0
aF16022.0
ag312
aI3
ag315
aV1teku0121
p317
aI0
aI0
aNaF0.0
aF0.0
aF0.0
aF0.0
aF0.0
aF0.0
aF0.0
aF0.0
aF0.0
aF0.0
ag312
aI3
ag315
aV1teku0122
p318
aI0
aI0
aNaF0.0
aF0.0
aF0.0
aF0.0
aF0.0
aF0.0
aF0.0
aF0.0
aF0.0
aF0.0
aV\u30b8\u30e5\u30f3
p319
aI1
ag15
(S'\x07\xdf\t\x0b'
p320
tp321
Rp322
aV1teku0123
p323
aI0
aI0
aNaF0.0
aF0.0
aF0.0
aF0.0
aF0.0
aF0.0
aF0.0
aF0.0
aF0.0
aF0.0
aV\u3064\u3046
p324
aI1
ag15
(S'\x07\xdf\t\x0b'
p325
tp326
Rp327
aV1teku0124
p328
aI0
aI0
aNaF0.0
aF0.0
aF0.0
aF0.0
aF0.0
aF0.0
aF0.0
aF0.0
aF0.0
aF0.0
aV\u307e\u3042\u304d\u3093
p329
aI1
ag15
(S'\x07\xdf\t\x0b'
p330
tp331
Rp332
aV1teku0125
p333
aI221947
aI190253
aI01
aF7533.0
aF55872.0
aF45420.0
aF62.0
aF7797.0
aF4738.0
aF7261.0
aF8172.0
aF2665.0
aF82427.0
aV\u5bcc
p334
aI1
ag15
(S'\x07\xdf\t\x0b'
p335
tp336
Rp337
aV1teku0126
p338
aI64161
aI45250
aNaF3927.0
aF6160.0
aF4831.0
aF7962.0
aF6908.0
aF7236.0
aF8385.0
aF9716.0
aF4845.0
aF4191.0
aV\u305d\u3046\u3057\u3052\u308b
p339
aI1
ag15
(S'\x07\xdf\t\x0b'
p340
tp341
Rp342
aV1teku0127
p343
aI60026
aI45268
aNaF1616.0
aF7716.0
aF15083.0
aF6041.0
aF8477.0
aF4545.0
aF5714.0
aF3584.0
aF3101.0
aF4149.0
aV\u6b69\u3061\u6b69\u3061
p344
aI1
ag15
(S'\x07\xdf\t\x0b'
p345
tp346
Rp347
aV1teku0128
p348
aI70508
aI50747
aNaF5866.0
aF8571.0
aF7932.0
aF5982.0
aF9404.0
aF10098.0
aF5941.0
aF5232.0
aF7847.0
aF3635.0
aV\u3054\u6e80\u60a6
p349
aI5
ag15
(S'\x07\xdf\t\x0b'
p350
tp351
Rp352
aV1teku0129
p353
aI156655
aI123616
aNaF4332.0
aF13230.0
aF25124.0
aF13401.0
aF18660.0
aF13597.0
aF13852.0
aF24723.0
aF13620.0
aF16116.0
ag349
aI5
ag352
aV1teku0130
p354
aI0
aI0
aNaF0.0
aF0.0
aF0.0
aF0.0
aF0.0
aF0.0
aF0.0
aF0.0
aF0.0
aF0.0
ag349
aI5
ag352
aV1teku0131
p355
aI0
aI0
aNaF0.0
aF0.0
aF0.0
aF0.0
aF0.0
aF0.0
aF0.0
aF0.0
aF0.0
aF0.0
ag349
aI5
ag352
aV1teku0132
p356
aI91132
aI68427
aNaF3774.0
aF4791.0
aF10889.0
aF6207.0
aF11245.0
aF6287.0
aF5556.0
aF10426.0
aF14152.0
aF17805.0
ag349
aI5
ag352
aV1teku0133
p357
aI0
aI0
aNaF0.0
aF0.0
aF0.0
aF0.0
aF0.0
aF0.0
aF0.0
aF0.0
aF0.0
aF0.0
aV\u30c1\u30fc\u30e0\u307e\u3063\u304d\u30fc
p358
aI5
ag15
(S'\x07\xdf\t\x0b'
p359
tp360
Rp361
aV1teku0134
p362
aI98426
aI77077
aNaF8187.0
aF17049.0
aF11081.0
aF7255.0
aF8609.0
aF9365.0
aF2886.0
aF7941.0
aF13166.0
aF12887.0
ag358
aI5
ag361
aV1teku0135
p363
aI0
aI0
aNaF0.0
aF0.0
aF0.0
aF0.0
aF0.0
aF0.0
aF0.0
aF0.0
aF0.0
aF0.0
ag358
aI5
ag361
aV1teku0136
p364
aI0
aI0
aNaF0.0
aF0.0
aF0.0
aF0.0
aF0.0
aF0.0
aF0.0
aF0.0
aF0.0
aF0.0
ag358
aI5
ag361
aV1teku0137
p365
aI0
aI0
aNaF0.0
aF0.0
aF0.0
aF0.0
aF0.0
aF0.0
aF0.0
aF0.0
aF0.0
aF0.0
ag358
aI5
ag361
aV1teku0138
p366
aI67474
aI59093
aNaF5596.0
aF6694.0
aF8417.0
aF7334.0
aF11988.0
aF6712.0
aF5006.0
aF5729.0
aF2399.0
aF7599.0
aV\u3069\u3089\u3048\u3082\u3093\u5973\u5b50\u4f1a
p367
aI5
ag15
(S'\x07\xdf\t\x0b'
p368
tp369
Rp370
aV1teku0139
p371
aI104869
aI73375
aNaF12077.0
aF18705.0
aF100.0
aF7595.0
aF8499.0
aF7729.0
aF5108.0
aF17779.0
aF10571.0
aF16706.0
ag367
aI5
ag370
aV1teku0140
p372
aI157314
aI119184
aNaF16408.0
aF18259.0
aF14469.0
aF13510.0
aF17970.0
aF13290.0
aF10900.0
aF17523.0
aF15597.0
aF19388.0
ag367
aI5
ag370
aV1teku0141
p373
aI110161
aI83209
aNaF3295.0
aF12304.0
aF15489.0
aF9904.0
aF17063.0
aF5794.0
aF7547.0
aF13749.0
aF12860.0
aF12156.0
ag367
aI5
ag370
aV1teku0142
p374
aI0
aI0
aNaF0.0
aF0.0
aF0.0
aF0.0
aF0.0
aF0.0
aF0.0
aF0.0
aF0.0
aF0.0
ag367
aI5
ag370
aV1teku0143
p375
aI71926
aI52128
aNaF8308.0
aF11652.0
aF10957.0
aF8679.0
aF7139.0
aF4186.0
aF7296.0
aF5070.0
aF5387.0
aF3252.0
aV\u304b\u3081\u3061\u3083\u3093\u30ba
p376
aI3
ag15
(S'\x07\xdf\t\x0b'
p377
tp378
Rp379
aV1teku0144
p380
aI48342
aI34047
aNaF4177.0
aF3095.0
aF6153.0
aF6586.0
aF5313.0
aF5473.0
aF2822.0
aF3312.0
aF4098.0
aF7313.0
ag376
aI3
ag379
aV1teku0145
p381
aI41601
aI34722
aNaF3766.0
aF5641.0
aF5132.0
aF5499.0
aF4760.0
aF2614.0
aF2952.0
aF2911.0
aF5453.0
aF2873.0
ag376
aI3
ag379
aV1teku0189
p382
aI0
aI0
aNaF0.0
aF0.0
aF0.0
aF0.0
aF0.0
aF0.0
aF0.0
aF0.0
aF0.0
aF0.0
aV\u4e09\u5341\u8def\u524d\uff08\uff11\u540d\u5b50\u3069\u3082\uff09
p383
aI5
ag15
(S'\x07\xdf\t\x0b'
p384
tp385
Rp386
aV1teku0147
p387
aI36914
aI27152
aI00
aF6170.0
aF2847.0
aF4241.0
aF3970.0
aF3761.0
aF355.0
aF2953.0
aF4184.0
aF2403.0
aF6030.0
ag383
aI5
ag386
aV1teku0148
p388
aI0
aI0
aI00
aF0.0
aF0.0
aF0.0
aF0.0
aF0.0
aF0.0
aF0.0
aF0.0
aF0.0
aF0.0
ag383
aI5
ag386
aV1teku0149
p389
aI4281
aI8680
aI00
aF342.0
aF276.0
aF361.0
aF1204.0
aF90.0
aF777.0
aF0.0
aF1231.0
aF0.0
aF0.0
ag383
aI5
ag386
aV1teku0150
p390
aI0
aI0
aI00
aF0.0
aF0.0
aF0.0
aF0.0
aF0.0
aF0.0
aF0.0
aF0.0
aF0.0
aF0.0
ag383
aI5
ag386
aV1teku0151
p391
aI29477
aI19787
aI00
aF2685.0
aF2238.0
aF201.0
aF2566.0
aF1864.0
aF3521.0
aF3817.0
aF3190.0
aF2480.0
aF6915.0
aV\u6109\u5feb\u30d5\u30a1\u30df\u30ea\u30fc\uff34\uff06\uff26
p392
aI3
ag15
(S'\x07\xdf\t\x0b'
p393
tp394
Rp395
aV1teku0152
p396
aI0
aI0
aNaF0.0
aF0.0
aF0.0
aF0.0
aF0.0
aF0.0
aF0.0
aF0.0
aF0.0
aF0.0
ag392
aI3
ag395
aV1teku0153
p397
aI105738
aI86709
aNaF8260.0
aF10385.0
aF40173.0
aF2024.0
aF6566.0
aF6717.0
aF1928.0
aF10160.0
aF9742.0
aF9783.0
ag392
aI3
ag395
aV1teku0154
p398
aI49186
aI41730
aNaF4029.0
aF10370.0
aF5944.0
aF5670.0
aF8482.0
aF502.0
aF535.0
aF4455.0
aF153.0
aF9046.0
aV\u3066\u3089\u3075\u3041\u3080
p399
aI3
ag15
(S'\x07\xdf\t\x0b'
p400
tp401
Rp402
aV1teku0155
p403
aI0
aI0
aI00
aF0.0
aF0.0
aF0.0
aF0.0
aF0.0
aF0.0
aF0.0
aF0.0
aF0.0
aF0.0
ag399
aI3
ag402
aV1teku0156
p404
aI26780
aI19547
aI00
aF1381.0
aF448.0
aF13777.0
aF257.0
aF30.0
aF214.0
aF282.0
aF1928.0
aF7872.0
aF591.0
ag399
aI3
ag402
aV1teku0157
p405
aI31378
aI24720
aI00
aF161.0
aF62.0
aF20172.0
aF102.0
aF195.0
aF277.0
aF303.0
aF3443.0
aF5294.0
aF1369.0
aV\u30c1\u30e3\u30ed
p406
aI3
ag15
(S'\x07\xdf\t\x0b'
p407
tp408
Rp409
aV1teku0158
p410
aI70663
aI51966
aNaF8758.0
aF4229.0
aF5213.0
aF8560.0
aF7270.0
aF9318.0
aF5401.0
aF9593.0
aF7853.0
aF4468.0
ag406
aI3
ag409
aV1teku0159
p411
aI65397
aI48005
aNaF4709.0
aF6567.0
aF6499.0
aF6892.0
aF8171.0
aF5978.0
aF4250.0
aF7993.0
aF7592.0
aF6746.0
ag406
aI3
ag409
aV1teku0160
p412
aI82604
aI52780
aNaF3022.0
aF1661.0
aF8816.0
aF9650.0
aF11876.0
aF11645.0
aF8852.0
aF10064.0
aF8421.0
aF8597.0
aV\u30bf\u30a4\u30ac\u30fc\u30b9
p413
aI1
ag15
(S'\x07\xdf\t\x0b'
p414
tp415
Rp416
aV1teku0161
p417
aI0
aI0
aNaF0.0
aF0.0
aF0.0
aF0.0
aF0.0
aF0.0
aF0.0
aF0.0
aF0.0
aF0.0
aV\u30ec\u30e2\u30f3\u4e09
p418
aI1
ag15
(S'\x07\xdf\t\x0b'
p419
tp420
Rp421
aV1teku0162
p422
aI0
aI0
aNaF0.0
aF0.0
aF0.0
aF0.0
aF0.0
aF0.0
aF0.0
aF0.0
aF0.0
aF0.0
aVROCK
p423
aI1
ag15
(S'\x07\xdf\t\x0b'
p424
tp425
Rp426
aV1teku0163
p427
aI59285
aI43540
aNaF2683.0
aF16803.0
aF5589.0
aF5507.0
aF6625.0
aF4801.0
aF1045.0
aF2485.0
aF10798.0
aF2949.0
aV\u30ad\u30bf\u30dc\u30f3
p428
aI1
ag15
(S'\x07\xdf\t\x0b'
p429
tp430
Rp431
aV1teku0164
p432
aI54650
aI40581
aNaF1064.0
aF9573.0
aF5839.0
aF4615.0
aF4614.0
aF7320.0
aF5318.0
aF5213.0
aF6610.0
aF4484.0
aV\u30c1\u30fc\u30e0\u4f8d
p433
aI1
ag15
(S'\x07\xdf\t\x0b'
p434
tp435
Rp436
aV1teku0165
p437
aI84671
aI73904
aI01
aF9587.0
aF6924.0
aF7609.0
aF10951.0
aF6549.0
aF6937.0
aF7576.0
aF10546.0
aF12701.0
aF5291.0
aV\u3068\u3068\u3081
p438
aI1
ag15
(S'\x07\xdf\t\x0b'
p439
tp440
Rp441
aV1teku0166
p442
aI72806
aI53037
aNaF6250.0
aF15392.0
aF6183.0
aF6620.0
aF6551.0
aF3292.0
aF5545.0
aF10285.0
aF11551.0
aF1137.0
aVNK
p443
aI1
ag15
(S'\x07\xdf\t\x0b'
p444
tp445
Rp446
aV1teku0167
p447
aI26556
aI19608
aI00
aF4739.0
aF5019.0
aF1155.0
aF9049.0
aF3745.0
aF25.0
aF9.0
aF506.0
aF951.0
aF1358.0
aV\u6de1\u6c34\u9b5a
p448
aI5
ag15
(S'\x07\xdf\t\x0b'
p449
tp450
Rp451
aV1teku0168
p452
aI60153
aI43411
aNaF7745.0
aF4109.0
aF1681.0
aF9286.0
aF6711.0
aF6606.0
aF6550.0
aF3971.0
aF9725.0
aF3769.0
ag448
aI5
ag451
aV1teku0169
p453
aI51998
aI41904
aNaF6680.0
aF5290.0
aF14834.0
aF1965.0
aF230.0
aF4382.0
aF2595.0
aF5406.0
aF7677.0
aF2939.0
ag448
aI5
ag451
aV1teku0170
p454
aI85666
aI66598
aNaF4256.0
aF12309.0
aF7946.0
aF9721.0
aF3123.0
aF5286.0
aF4366.0
aF3081.0
aF17304.0
aF18274.0
ag448
aI5
ag451
aV1teku0171
p455
aI71373
aI50402
aNaF5702.0
aF5838.0
aF2489.0
aF5577.0
aF7941.0
aF8272.0
aF7024.0
aF16018.0
aF9731.0
aF2781.0
ag448
aI5
ag451
aV1teku0172
p456
aI75778
aI55463
aNaF6516.0
aF7094.0
aF9587.0
aF7110.0
aF12067.0
aF3682.0
aF5815.0
aF14641.0
aF1333.0
aF7933.0
aVcandy\u2019s moon
p457
aI3
ag15
(S'\x07\xdf\t\x0b'
p458
tp459
Rp460
aV1teku0173
p461
aI66380
aI50799
aNaF11137.0
aF6485.0
aF4776.0
aF7480.0
aF8814.0
aF2490.0
aF2375.0
aF9003.0
aF8895.0
aF4925.0
ag457
aI3
ag460
aV1teku0174
p462
aI0
aI0
aNaF0.0
aF0.0
aF0.0
aF0.0
aF0.0
aF0.0
aF0.0
aF0.0
aF0.0
aF0.0
ag457
aI3
ag460
aV1teku0175
p463
aI38813
aI28616
aNaF2040.0
aF3041.0
aF2810.0
aF2285.0
aF9195.0
aF2993.0
aF2865.0
aF3698.0
aF8457.0
aF1429.0
aV\u308d\u3046\u3080
p464
aI5
ag15
(S'\x07\xdf\t\x0b'
p465
tp466
Rp467
aV1teku0176
p468
aI77107
aI57230
aNaF14656.0
aF9097.0
aF11903.0
aF5634.0
aF8484.0
aF7746.0
aF7656.0
aF5332.0
aF2310.0
aF4289.0
ag464
aI5
ag467
aV1teku0177
p469
aI62793
aI40423
aNaF4602.0
aF6017.0
aF2138.0
aF16219.0
aF8765.0
aF4023.0
aF3024.0
aF6251.0
aF9400.0
aF2354.0
ag464
aI5
ag467
aV1teku0178
p470
aI111224
aI81254
aNaF10286.0
aF14041.0
aF12459.0
aF9340.0
aF15653.0
aF5983.0
aF14368.0
aF14365.0
aF4475.0
aF10254.0
ag464
aI5
ag467
aV1teku0179
p471
aI0
aI0
aNaF0.0
aF0.0
aF0.0
aF0.0
aF0.0
aF0.0
aF0.0
aF0.0
aF0.0
aF0.0
ag464
aI5
ag467
aV1teku0180
p472
aI62423
aI42674
aNaF6777.0
aF5821.0
aF5065.0
aF6941.0
aF5677.0
aF4497.0
aF6016.0
aF8129.0
aF4452.0
aF9048.0
aV\u30c1\u30fc\u30e0Housewife
p473
aI3
ag15
(S'\x07\xdf\t\x0b'
p474
tp475
Rp476
aV1teku0181
p477
aI0
aI0
aNaF0.0
aF0.0
aF0.0
aF0.0
aF0.0
aF0.0
aF0.0
aF0.0
aF0.0
aF0.0
ag473
aI3
ag476
aV1teku0182
p478
aI0
aI0
aNaF0.0
aF0.0
aF0.0
aF0.0
aF0.0
aF0.0
aF0.0
aF0.0
aF0.0
aF0.0
ag473
aI3
ag476
aV1teku0183
p479
aI0
aI0
aNaF0.0
aF0.0
aF0.0
aF0.0
aF0.0
aF0.0
aF0.0
aF0.0
aF0.0
aF0.0
aV\u30c1\u30fc\u30e0\u30b9\u30de\u30a4\u30eb\u263a
p480
aI5
ag15
(S'\x07\xdf\t\x0b'
p481
tp482
Rp483
aV1teku0184
p484
aI0
aI0
aNaF0.0
aF0.0
aF0.0
aF0.0
aF0.0
aF0.0
aF0.0
aF0.0
aF0.0
aF0.0
ag480
aI5
ag483
aV1teku0185
p485
aI0
aI0
aNaF0.0
aF0.0
aF0.0
aF0.0
aF0.0
aF0.0
aF0.0
aF0.0
aF0.0
aF0.0
ag480
aI5
ag483
aV1teku0186
p486
aI0
aI0
aNaF0.0
aF0.0
aF0.0
aF0.0
aF0.0
aF0.0
aF0.0
aF0.0
aF0.0
aF0.0
ag480
aI5
ag483
aV1teku0187
p487
aI0
aI0
aNaF0.0
aF0.0
aF0.0
aF0.0
aF0.0
aF0.0
aF0.0
aF0.0
aF0.0
aF0.0
ag480
aI5
ag483
aV1teku0188
p488
aI0
aI0
aNaF0.0
aF0.0
aF0.0
aF0.0
aF0.0
aF0.0
aF0.0
aF0.0
aF0.0
aF0.0
aV\u864e\u3061\u3083\u3093
p489
aI1
ag15
(S'\x07\xdf\t\x0b'
p490
tp491
Rp492
aV1teku0190
p493
aI0
aI0
aNaF0.0
aF0.0
aF0.0
aF0.0
aF0.0
aF0.0
aF0.0
aF0.0
aF0.0
aF0.0
aV\u3066\u3093\u3068\u3046\u3080\u3057
p494
aI1
ag15
(S'\x07\xdf\t\x0b'
p495
tp496
Rp497
aV1teku0191
p498
aI0
aI0
aNaF0.0
aF0.0
aF0.0
aF0.0
aF0.0
aF0.0
aF0.0
aF0.0
aF0.0
aF0.0
aV\u3072\u30fc\u3055\u3093
p499
aI1
ag15
(S'\x07\xdf\t\x0b'
p500
tp501
Rp502
aV1teku0192
p503
aI0
aI0
aNaF0.0
aF0.0
aF0.0
aF0.0
aF0.0
aF0.0
aF0.0
aF0.0
aF0.0
aF0.0
aV\u307d\u3093\u305f_2
p504
aI3
ag15
(S'\x07\xdf\n\x06'
p505
tp506
Rp507
aV2teku0000
p508
aI78012
aI66965
aNaF7478.0
aF6115.0
aF8277.0
aF8405.0
aF5965.0
aF8577.0
aF7607.0
aF8582.0
aF6778.0
aF10228.0
ag504
aI3
ag507
aV2teku0001
p509
aI129061
aI87050
aNaF12395.0
aF7149.0
aF18487.0
aF16999.0
aF18889.0
aF8173.0
aF9288.0
aF8677.0
aF23467.0
aF5537.0
ag504
aI3
ag507
aV2teku0002
p510
aI0
aI0
aNaF0.0
aF0.0
aF0.0
aF0.0
aF0.0
aF0.0
aF0.0
aF0.0
aF0.0
aF0.0
aV\u5c71\u5cb3\u697d\u8d70\u30af\u30e9\u30d6
p511
aI1
ag15
(S'\x07\xdf\n\x06'
p512
tp513
Rp514
aV2teku0003
p515
aI286876
aI259420
aI01
aF36417.0
aF31110.0
aF22926.0
aF23541.0
aF31763.0
aF23283.0
aF54950.0
aF17455.0
aF24117.0
aF21314.0
aV\u30ab\u30c3\u30d1\u3055\u3093_2
p516
aI1
ag15
(S'\x07\xdf\n\x06'
p517
tp518
Rp519
aV2teku0004
p520
aI0
aI0
aNaF0.0
aF0.0
aF0.0
aF0.0
aF0.0
aF0.0
aF0.0
aF0.0
aF0.0
aF0.0
aV\u30c6\u30cb\u30b9\u3063\u3053\u304f\u3089\u3076_2
p521
aI5
ag15
(S'\x07\xdf\n\x06'
p522
tp523
Rp524
aV2teku0005
p525
aI250391
aI197316
aNaF17537.0
aF27814.0
aF26774.0
aF33258.0
aF23560.0
aF43030.0
aF15970.0
aF21189.0
aF21400.0
aF19859.0
ag521
aI5
ag524
aV2teku0006
p526
aI0
aI0
aNaF0.0
aF0.0
aF0.0
aF0.0
aF0.0
aF0.0
aF0.0
aF0.0
aF0.0
aF0.0
ag521
aI5
ag524
aV2teku0007
p527
aI0
aI0
aNaF0.0
aF0.0
aF0.0
aF0.0
aF0.0
aF0.0
aF0.0
aF0.0
aF0.0
aF0.0
ag521
aI5
ag524
aV2teku0008
p528
aI136570
aI95913
aNaF13569.0
aF32520.0
aF14964.0
aF6014.0
aF1734.0
aF13380.0
aF17346.0
aF10905.0
aF9059.0
aF17079.0
ag521
aI5
ag524
aV2teku0009
p529
aI275233
aI212967
aNaF19828.0
aF26504.0
aF30241.0
aF27171.0
aF21890.0
aF38510.0
aF25563.0
aF27051.0
aF24632.0
aF33843.0
aV\uff32\uff25\u3061\u3083\u3093_2
p530
aI1
ag15
(S'\x07\xdf\n\x06'
p531
tp532
Rp533
aV2teku0011
p534
aI82548
aI67126
aI01
aF9162.0
aF5182.0
aF8723.0
aF7918.0
aF2534.0
aF18404.0
aF3880.0
aF10035.0
aF8170.0
aF8540.0
aV\u30c1\u30fc\u30e0 \u30b4\u30f3_2
p535
aI3
ag15
(S'\x07\xdf\n\x06'
p536
tp537
Rp538
aV2teku0012
p539
aI0
aI0
aNaF0.0
aF0.0
aF0.0
aF0.0
aF0.0
aF0.0
aF0.0
aF0.0
aF0.0
aF0.0
ag535
aI3
ag538
aV2teku0013
p540
aI97446
aI68197
aNaF5100.0
aF17083.0
aF11474.0
aF9766.0
aF354.0
aF12646.0
aF21206.0
aF9811.0
aF1955.0
aF8051.0
ag535
aI3
ag538
aV2teku0014
p541
aI0
aI0
aNaF0.0
aF0.0
aF0.0
aF0.0
aF0.0
aF0.0
aF0.0
aF0.0
aF0.0
aF0.0
aV\u307b\u3063\u3061\u3083\u3093
p542
aI5
ag15
(S'\x07\xdf\n\x06'
p543
tp544
Rp545
aV2teku0015
p546
aI0
aI0
aNaF0.0
aF0.0
aF0.0
aF0.0
aF0.0
aF0.0
aF0.0
aF0.0
aF0.0
aF0.0
ag542
aI5
ag545
aV2teku0016
p547
aI0
aI0
aNaF0.0
aF0.0
aF0.0
aF0.0
aF0.0
aF0.0
aF0.0
aF0.0
aF0.0
aF0.0
ag542
aI5
ag545
aV2teku0017
p548
aI0
aI0
aNaF0.0
aF0.0
aF0.0
aF0.0
aF0.0
aF0.0
aF0.0
aF0.0
aF0.0
aF0.0
ag542
aI5
ag545
aV2teku0018
p549
aI0
aI0
aNaF0.0
aF0.0
aF0.0
aF0.0
aF0.0
aF0.0
aF0.0
aF0.0
aF0.0
aF0.0
ag542
aI5
ag545
aV2teku0019
p550
aI0
aI0
aNaF0.0
aF0.0
aF0.0
aF0.0
aF0.0
aF0.0
aF0.0
aF0.0
aF0.0
aF0.0
aV\u5922\u304c\u30e2\u30ea\u30e2\u30ea
p551
aI5
ag15
(S'\x07\xdf\n\x06'
p552
tp553
Rp554
aV2teku0020
p555
aI55120
aI36371
aNaF5092.0
aF7806.0
aF4443.0
aF4539.0
aF12317.0
aF4627.0
aF5661.0
aF3863.0
aF4156.0
aF2616.0
ag551
aI5
ag554
aV2teku0021
p556
aI75850
aI57581
aNaF9664.0
aF11574.0
aF10556.0
aF6909.0
aF10645.0
aF2353.0
aF2708.0
aF9283.0
aF10916.0
aF1242.0
ag551
aI5
ag554
aV2teku0022
p557
aI66047
aI49583
aNaF7953.0
aF23237.0
aF8122.0
aF2116.0
aF11740.0
aF2234.0
aF2915.0
aF6827.0
aF903.0
aF0.0
ag551
aI5
ag554
aV2teku0023
p558
aI53478
aI42175
aNaF2911.0
aF4201.0
aF1578.0
aF2685.0
aF13553.0
aF9235.0
aF12347.0
aF2189.0
aF2042.0
aF2737.0
ag551
aI5
ag554
aV2teku0024
p559
aI59197
aI40182
aNaF1145.0
aF10909.0
aF2597.0
aF5999.0
aF11828.0
aF3426.0
aF5207.0
aF1639.0
aF8633.0
aF7814.0
aV\u864e\u3061\u3083\u3093_2
p560
aI1
ag15
(S'\x07\xdf\n\x06'
p561
tp562
Rp563
aV2teku0025
p564
aI0
aI0
aNaF0.0
aF0.0
aF0.0
aF0.0
aF0.0
aF0.0
aF0.0
aF0.0
aF0.0
aF0.0
aV\u30c1\u30fc\u30e0\u7dcf\u5408\u8a08\u753b
p565
aI3
ag15
(S'\x07\xdf\n\x06'
p566
tp567
Rp568
aV2teku0026
p569
aI79507
aI55389
aNaF8388.0
aF1154.0
aF4634.0
aF1460.0
aF24018.0
aF9466.0
aF16293.0
aF5626.0
aF3841.0
aF4627.0
ag565
aI3
ag568
aV2teku0027
p570
aI69328
aI45417
aNaF100.0
aF8191.0
aF5910.0
aF5926.0
aF6671.0
aF7597.0
aF12976.0
aF9028.0
aF6907.0
aF6022.0
ag565
aI3
ag568
aV2teku0028
p571
aI0
aI0
aNaF0.0
aF0.0
aF0.0
aF0.0
aF0.0
aF0.0
aF0.0
aF0.0
aF0.0
aF0.0
aV\u30cf\u30ca\u30df\u30ba\u30ad
p572
aI3
ag15
(S'\x07\xdf\n\x06'
p573
tp574
Rp575
aV2teku0029
p576
aI47934
aI34119
aI00
aF723.0
aF6566.0
aF4830.0
aF8681.0
aF6534.0
aF3987.0
aF7085.0
aF2901.0
aF5174.0
aF1453.0
ag572
aI3
ag575
aV2teku0030
p577
aI76507
aI54052
aI00
aF7113.0
aF5528.0
aF6231.0
aF7227.0
aF10741.0
aF9421.0
aF7765.0
aF6691.0
aF7264.0
aF8526.0
ag572
aI3
ag575
aV2teku0031
p578
aI0
aI0
aI00
aF0.0
aF0.0
aF0.0
aF0.0
aF0.0
aF0.0
aF0.0
aF0.0
aF0.0
aF0.0
aV\u304d\u30fc\u3061\u3083\u3093
p579
aI1
ag15
(S'\x07\xdf\n\x06'
p580
tp581
Rp582
aV2teku0032
p583
aI143984
aI106114
aI01
aF7891.0
aF15759.0
aF11215.0
aF14245.0
aF11434.0
aF10336.0
aF20976.0
aF18383.0
aF20417.0
aF13328.0
aV\u30a4\u30b7
p584
aI1
ag15
(S'\x07\xdf\n\x06'
p585
tp586
Rp587
aV2teku0033
p588
aI142771
aI113177
aI01
aF8245.0
aF9599.0
aF11357.0
aF15946.0
aF14779.0
aF10367.0
aF21600.0
aF17407.0
aF20870.0
aF12601.0
aV\u5bae\u90e8\u30a6\u30a9\u30fc\u30ad\u30f3\u30b0\u30af\u30e9\u30d6_2
p589
aI1
ag15
(S'\x07\xdf\n\x06'
p590
tp591
Rp592
aV2teku0034
p593
aI89575
aI68836
aI01
aF8012.0
aF10942.0
aF6724.0
aF14558.0
aF6996.0
aF9708.0
aF10148.0
aF8239.0
aF1919.0
aF12329.0
aV\u30b3\u30b9\u30e2\u30b9_2
p594
aI3
ag15
(S'\x07\xdf\n\x06'
p595
tp596
Rp597
aV2teku0035
p598
aI0
aI0
aI00
aF0.0
aF0.0
aF0.0
aF0.0
aF0.0
aF0.0
aF0.0
aF0.0
aF0.0
aF0.0
ag594
aI3
ag597
aV2teku0036
p599
aI20709
aI11436
aI00
aF802.0
aF2450.0
aF3441.0
aF2100.0
aF600.0
aF2522.0
aF4145.0
aF2580.0
aF162.0
aF1907.0
ag594
aI3
ag597
aV2teku0037
p600
aI0
aI0
aI00
aF0.0
aF0.0
aF0.0
aF0.0
aF0.0
aF0.0
aF0.0
aF0.0
aF0.0
aF0.0
aV\u30c1\u30fc\u30e0\u30fb\u30d5\u30b8\u30a4_2
p601
aI3
ag15
(S'\x07\xdf\n\x06'
p602
tp603
Rp604
aV2teku0038
p605
aI92972
aI52812
aNaF9501.0
aF10969.0
aF7963.0
aF6896.0
aF3765.0
aF8753.0
aF8375.0
aF16204.0
aF10141.0
aF10405.0
ag601
aI3
ag604
aV2teku0039
p606
aI0
aI0
aNaF0.0
aF0.0
aF0.0
aF0.0
aF0.0
aF0.0
aF0.0
aF0.0
aF0.0
aF0.0
ag601
aI3
ag604
aV2teku0040
p607
aI71085
aI52633
aNaF8641.0
aF7133.0
aF6421.0
aF7976.0
aF6684.0
aF6137.0
aF6195.0
aF9356.0
aF6468.0
aF6074.0
aV\u30ef\u30f3
p608
aI1
ag15
(S'\x07\xdf\n\x06'
p609
tp610
Rp611
aV2teku0041
p612
aI194269
aI154666
aI01
aF16300.0
aF18246.0
aF22415.0
aF23068.0
aF25581.0
aF20462.0
aF20164.0
aF17447.0
aF18222.0
aF12364.0
aV\u308c\u3093\u3052\u8349
p613
aI1
ag15
(S'\x07\xdf\n\x06'
p614
tp615
Rp616
aV2teku0042
p617
aI84052
aI42216
aNaF9388.0
aF7997.0
aF9231.0
aF7093.0
aF10331.0
aF8469.0
aF7087.0
aF9276.0
aF10145.0
aF5035.0
aV\u30cf\u30b8\u30e1_2
p618
aI1
ag15
(S'\x07\xdf\n\x06'
p619
tp620
Rp621
aV2teku0043
p622
aI0
aI0
aNaF0.0
aF0.0
aF0.0
aF0.0
aF0.0
aF0.0
aF0.0
aF0.0
aF0.0
aF0.0
aV\u30c1\u30fc\u30e0\u6d45\u4e95
p623
aI3
ag15
(S'\x07\xdf\n\x06'
p624
tp625
Rp626
aV2teku0044
p627
aI6959
aI3906
aI00
aF919.0
aF694.0
aF336.0
aF375.0
aF435.0
aF915.0
aF729.0
aF577.0
aF870.0
aF1109.0
ag623
aI3
ag626
aV2teku0045
p628
aI7070
aI4697
aI00
aF327.0
aF265.0
aF232.0
aF984.0
aF1888.0
aF1262.0
aF81.0
aF132.0
aF318.0
aF1581.0
ag623
aI3
ag626
aV2teku0046
p629
aI0
aI0
aI00
aF0.0
aF0.0
aF0.0
aF0.0
aF0.0
aF0.0
aF0.0
aF0.0
aF0.0
aF0.0
aV\u30a6\u30a9\u30fc\u30ad\u30f3\u30b0\u30fb\u30d9\u30a2_2
p630
aI3
ag15
(S'\x07\xdf\n\x06'
p631
tp632
Rp633
aV2teku0047
p634
aI103226
aI73478
aNaF13475.0
aF12504.0
aF12310.0
aF10722.0
aF10643.0
aF9571.0
aF2145.0
aF8847.0
aF10750.0
aF12259.0
ag630
aI3
ag633
aV2teku0048
p635
aI0
aI0
aNaF0.0
aF0.0
aF0.0
aF0.0
aF0.0
aF0.0
aF0.0
aF0.0
aF0.0
aF0.0
ag630
aI3
ag633
aV2teku0049
p636
aI0
aI0
aNaF0.0
aF0.0
aF0.0
aF0.0
aF0.0
aF0.0
aF0.0
aF0.0
aF0.0
aF0.0
aV\u6771\u91ce
p637
aI3
ag15
(S'\x07\xdf\n\x06'
p638
tp639
Rp640
aV2teku0050
p641
aI50055
aI40846
aNaF3654.0
aF3601.0
aF5363.0
aF3151.0
aF13974.0
aF2519.0
aF1294.0
aF5125.0
aF6152.0
aF5222.0
ag637
aI3
ag640
aV2teku0051
p642
aI0
aI0
aNaF0.0
aF0.0
aF0.0
aF0.0
aF0.0
aF0.0
aF0.0
aF0.0
aF0.0
aF0.0
ag637
aI3
ag640
aV2teku0052
p643
aI45975
aI39521
aNaF1520.0
aF3227.0
aF4645.0
aF4471.0
aF8011.0
aF6198.0
aF5807.0
aF3757.0
aF4068.0
aF4271.0
aV\u3072\u3089\u3081_2
p644
aI1
ag15
(S'\x07\xdf\n\x06'
p645
tp646
Rp647
aV2teku0053
p648
aI65800
aI33471
aI00
aF5454.0
aF1479.0
aF1831.0
aF4710.0
aF11300.0
aF5368.0
aF9617.0
aF6307.0
aF9390.0
aF10344.0
aV\u3072\u305f\u3059\u3089\uff12_2
p649
aI1
ag15
(S'\x07\xdf\n\x06'
p650
tp651
Rp652
aV2teku0054
p653
aI60864
aI45577
aNaF7056.0
aF10032.0
aF7647.0
aF7857.0
aF4667.0
aF4069.0
aF6919.0
aF3783.0
aF5111.0
aF3723.0
aV\u307e\u307f\u3061\u3083\u3093_2
p654
aI1
ag15
(S'\x07\xdf\n\x06'
p655
tp656
Rp657
aV2teku0055
p658
aI0
aI0
aNaF0.0
aF0.0
aF0.0
aF0.0
aF0.0
aF0.0
aF0.0
aF0.0
aF0.0
aF0.0
aV\u30c6\u30af\u30c6\u30af_2
p659
aI1
ag15
(S'\x07\xdf\n\x06'
p660
tp661
Rp662
aV2teku0056
p663
aI0
aI0
aNaF0.0
aF0.0
aF0.0
aF0.0
aF0.0
aF0.0
aF0.0
aF0.0
aF0.0
aF0.0
aV\u30cf\u30ae\u30b1\u30f3
p664
aI3
ag15
(S'\x07\xdf\n\x06'
p665
tp666
Rp667
aV2teku0057
p668
aI77475
aI67815
aNaF10188.0
aF10065.0
aF6179.0
aF9092.0
aF2725.0
aF18740.0
aF6426.0
aF8068.0
aF3943.0
aF2049.0
ag664
aI3
ag667
aV2teku0058
p669
aI60452
aI44145
aNaF4437.0
aF6010.0
aF5449.0
aF6528.0
aF4484.0
aF10931.0
aF1275.0
aF7279.0
aF6473.0
aF7586.0
ag664
aI3
ag667
aV2teku0059
p670
aI58258
aI42163
aNaF13064.0
aF3241.0
aF7962.0
aF5341.0
aF3120.0
aF11288.0
aF8057.0
aF1550.0
aF3106.0
aF1529.0
aV\u30ef\u30eb\u30b5\u2015A50_2
p671
aI5
ag15
(S'\x07\xdf\n\x06'
p672
tp673
Rp674
aV2teku0060
p675
aI64923
aI47897
aI01
aF7281.0
aF4189.0
aF4404.0
aF7574.0
aF14524.0
aF4394.0
aF2327.0
aF6438.0
aF4059.0
aF9733.0
ag671
aI5
ag674
aV2teku0061
p676
aI106130
aI84656
aI01
aF3619.0
aF8147.0
aF10692.0
aF4759.0
aF12370.0
aF25496.0
aF14074.0
aF8686.0
aF9019.0
aF9268.0
ag671
aI5
ag674
aV2teku0062
p677
aI69147
aI47455
aI01
aF4277.0
aF6528.0
aF7437.0
aF8399.0
aF5544.0
aF3651.0
aF12943.0
aF4767.0
aF5730.0
aF9871.0
ag671
aI5
ag674
aV2teku0063
p678
aI79312
aI56263
aI01
aF5877.0
aF7153.0
aF7044.0
aF10078.0
aF3940.0
aF14913.0
aF10931.0
aF4659.0
aF6541.0
aF8176.0
ag671
aI5
ag674
aV2teku0064
p679
aI103139
aI86594
aI01
aF13361.0
aF15854.0
aF10083.0
aF9786.0
aF12509.0
aF14015.0
aF7368.0
aF4046.0
aF10274.0
aF5843.0
aV\u30d7\u30ea\u30d7\u30ea\u4f1a
p680
aI5
ag15
(S'\x07\xdf\n\x06'
p681
tp682
Rp683
aV2teku0065
p684
aI52122
aI39194
aNaF5887.0
aF227.0
aF6855.0
aF5042.0
aF8423.0
aF4899.0
aF6369.0
aF3906.0
aF6730.0
aF3784.0
ag680
aI5
ag683
aV2teku0066
p685
aI80668
aI56752
aNaF9566.0
aF11929.0
aF10815.0
aF3277.0
aF3479.0
aF381.0
aF11453.0
aF11927.0
aF7077.0
aF10764.0
ag680
aI5
ag683
aV2teku0067
p686
aI55064
aI36771
aNaF12311.0
aF7231.0
aF2373.0
aF7686.0
aF2873.0
aF5044.0
aF10855.0
aF1705.0
aF2436.0
aF2550.0
ag680
aI5
ag683
aV2teku0068
p687
aI81776
aI64437
aNaF12750.0
aF8094.0
aF5512.0
aF13812.0
aF13200.0
aF6878.0
aF6094.0
aF4767.0
aF3165.0
aF7504.0
ag680
aI5
ag683
aV2teku0069
p688
aI37886
aI26339
aNaF5903.0
aF4504.0
aF4133.0
aF1546.0
aF2587.0
aF3359.0
aF2019.0
aF2711.0
aF3809.0
aF7315.0
aV\u5927\u585a\u5bb6
p689
aI3
ag15
(S'\x07\xdf\n\x06'
p690
tp691
Rp692
aV2teku0070
p693
aI0
aI0
aNaF0.0
aF0.0
aF0.0
aF0.0
aF0.0
aF0.0
aF0.0
aF0.0
aF0.0
aF0.0
ag689
aI3
ag692
aV2teku0071
p694
aI0
aI0
aNaF0.0
aF0.0
aF0.0
aF0.0
aF0.0
aF0.0
aF0.0
aF0.0
aF0.0
aF0.0
ag689
aI3
ag692
aV2teku0072
p695
aI0
aI0
aNaF0.0
aF0.0
aF0.0
aF0.0
aF0.0
aF0.0
aF0.0
aF0.0
aF0.0
aF0.0
aVTama
p696
aI1
ag15
(S'\x07\xdf\n\x06'
p697
tp698
Rp699
aV2teku0073
p700
aI0
aI0
aNaF0.0
aF0.0
aF0.0
aF0.0
aF0.0
aF0.0
aF0.0
aF0.0
aF0.0
aF0.0
aV\u30d2\u30ed\u30e6\u30ad
p701
aI1
ag15
(S'\x07\xdf\n\x06'
p702
tp703
Rp704
aV2teku0074
p705
aI0
aI0
aNaF0.0
aF0.0
aF0.0
aF0.0
aF0.0
aF0.0
aF0.0
aF0.0
aF0.0
aF0.0
aV\u30c1\u30fc\u30e0\u30d5\u30af\u30d5\u30af
p706
aI3
ag15
(S'\x07\xdf\n\x06'
p707
tp708
Rp709
aV2teku0075
p710
aI0
aI0
aNaF0.0
aF0.0
aF0.0
aF0.0
aF0.0
aF0.0
aF0.0
aF0.0
aF0.0
aF0.0
ag706
aI3
ag709
aV2teku0076
p711
aI144960
aI127073
aNaF22392.0
aF11400.0
aF16137.0
aF22840.0
aF14709.0
aF17107.0
aF12438.0
aF4576.0
aF7120.0
aF16241.0
ag706
aI3
ag709
aV2teku0077
p712
aI146741
aI129402
aNaF17344.0
aF16750.0
aF15354.0
aF15847.0
aF9174.0
aF16255.0
aF3189.0
aF16927.0
aF16634.0
aF19267.0
aV\u30c1\u30fc\u30e0\u30d5\u30af\u30d5\u30af \u30e4\u30f3\u30b0
p713
aI3
ag15
(S'\x07\xdf\n\x06'
p714
tp715
Rp716
aV2teku0078
p717
aI89325
aI63836
aNaF8162.0
aF7847.0
aF10848.0
aF10848.0
aF6949.0
aF398.0
aF13448.0
aF9919.0
aF11437.0
aF9469.0
ag713
aI3
ag716
aV2teku0079
p718
aI41608
aI29968
aNaF4580.0
aF3043.0
aF7282.0
aF3038.0
aF5688.0
aF218.0
aF3437.0
aF3166.0
aF4191.0
aF6965.0
ag713
aI3
ag716
aV2teku0080
p719
aI0
aI0
aNaF0.0
aF0.0
aF0.0
aF0.0
aF0.0
aF0.0
aF0.0
aF0.0
aF0.0
aF0.0
aV\u3044\uff5e\u3061\u3083\u3093\u3068\u6109\u5feb\u306a\u4ef2\u9593\u305f\u3061
p720
aI5
ag15
(S'\x07\xdf\n\x06'
p721
tp722
Rp723
aV2teku0081
p724
aI23990
aI13125
aI00
aF1904.0
aF1227.0
aF3064.0
aF6056.0
aF4689.0
aF394.0
aF0.0
aF3273.0
aF2110.0
aF1273.0
ag720
aI5
ag723
aV2teku0082
p725
aI16126
aI13866
aI00
aF1723.0
aF1563.0
aF1741.0
aF2296.0
aF642.0
aF1164.0
aF730.0
aF2171.0
aF2866.0
aF1230.0
ag720
aI5
ag723
aV2teku0083
p726
aI15158
aI7683
aI00
aF0.0
aF191.0
aF524.0
aF3318.0
aF514.0
aF2400.0
aF2022.0
aF1803.0
aF2313.0
aF2073.0
ag720
aI5
ag723
aV2teku0084
p727
aI0
aI0
aI00
aF0.0
aF0.0
aF0.0
aF0.0
aF0.0
aF0.0
aF0.0
aF0.0
aF0.0
aF0.0
ag720
aI5
ag723
aV2teku0085
p728
aI15437
aI7738
aI00
aF2440.0
aF0.0
aF211.0
aF7047.0
aF57.0
aF0.0
aF0.0
aF0.0
aF4050.0
aF1632.0
aV\u307e\u3042\u304d\u3093_2
p729
aI1
ag15
(S'\x07\xdf\n\x06'
p730
tp731
Rp732
aV2teku0086
p733
aI204070
aI176909
aI01
aF7004.0
aF0.0
aF7580.0
aF4102.0
aF93679.0
aF35543.0
aF30661.0
aF7494.0
aF7680.0
aF10327.0
aV\u3069\u3089\u3048\u3082\u3093\u5973\u5b50\u4f1a_2
p734
aI5
ag15
(S'\x07\xdf\n\x06'
p735
tp736
Rp737
aV2teku0087
p738
aI97724
aI69433
aI01
aF15683.0
aF13942.0
aF13135.0
aF5137.0
aF3072.0
aF8701.0
aF6316.0
aF12028.0
aF8669.0
aF11041.0
ag734
aI5
ag737
aV2teku0088
p739
aI140618
aI106530
aI01
aF10787.0
aF15777.0
aF17506.0
aF18454.0
aF8696.0
aF18103.0
aF8744.0
aF17821.0
aF12554.0
aF12176.0
ag734
aI5
ag737
aV2teku0089
p740
aI91024
aI69178
aI01
aF6019.0
aF15916.0
aF10160.0
aF4924.0
aF6265.0
aF4106.0
aF10833.0
aF3447.0
aF13195.0
aF16159.0
ag734
aI5
ag737
aV2teku0090
p741
aI79128
aI52387
aI01
aF4755.0
aF7478.0
aF6025.0
aF5870.0
aF18852.0
aF6158.0
aF8919.0
aF7302.0
aF10706.0
aF3063.0
ag734
aI5
ag737
aV2teku0091
p742
aI79719
aI57527
aI01
aF10418.0
aF9656.0
aF10279.0
aF10305.0
aF10125.0
aF8094.0
aF2702.0
aF5161.0
aF8189.0
aF4790.0
aV\u304a\u3055\u3093\u307d
p743
aI1
ag15
(S'\x07\xdf\n\x06'
p744
tp745
Rp746
aV2teku0092
p747
aI56343
aI44747
aNaF3701.0
aF12370.0
aF3873.0
aF4820.0
aF6411.0
aF5871.0
aF10711.0
aF4353.0
aF3631.0
aF602.0
aV\u5317\u90e8Age263
p748
aI5
ag15
(S'\x07\xdf\n\x06'
p749
tp750
Rp751
aV2teku0093
p752
aI135346
aI120760
aNaF11227.0
aF17887.0
aF8283.0
aF12910.0
aF17497.0
aF26505.0
aF10071.0
aF8043.0
aF7337.0
aF15586.0
ag748
aI5
ag751
aV2teku0094
p753
aI0
aI0
aNaF0.0
aF0.0
aF0.0
aF0.0
aF0.0
aF0.0
aF0.0
aF0.0
aF0.0
aF0.0
ag748
aI5
ag751
aV2teku0095
p754
aI0
aI0
aNaF0.0
aF0.0
aF0.0
aF0.0
aF0.0
aF0.0
aF0.0
aF0.0
aF0.0
aF0.0
ag748
aI5
ag751
aV2teku0096
p755
aI0
aI0
aNaF0.0
aF0.0
aF0.0
aF0.0
aF0.0
aF0.0
aF0.0
aF0.0
aF0.0
aF0.0
ag748
aI5
ag751
aV2teku0097
p756
aI88079
aI72378
aNaF11723.0
aF13918.0
aF12444.0
aF4218.0
aF18539.0
aF8734.0
aF1383.0
aF8998.0
aF8052.0
aF70.0
aV\u30b0\u30ed\u30fc\u30ab\u30eb\u30c1\u30e3\u30ec\u30f3\u30b8
p757
aI5
ag15
(S'\x07\xdf\n\x06'
p758
tp759
Rp760
aV2teku0098
p761
aI0
aI0
aI00
aF0.0
aF0.0
aF0.0
aF0.0
aF0.0
aF0.0
aF0.0
aF0.0
aF0.0
aF0.0
ag757
aI5
ag760
aV2teku0250
p762
aI26609
aI26628
aI00
aF3449.0
aF1239.0
aF2728.0
aF2208.0
aF0.0
aF0.0
aF127.0
aF2072.0
aF8318.0
aF6468.0
ag757
aI5
ag760
aV2teku0251
p763
aI56300
aI38184
aI00
aF8064.0
aF4133.0
aF6760.0
aF6760.0
aF6933.0
aF8332.0
aF1864.0
aF3261.0
aF4551.0
aF5642.0
ag757
aI5
ag760
aV2teku0252
p764
aI30331
aI21741
aI00
aF9.0
aF3381.0
aF7024.0
aF6950.0
aF1334.0
aF503.0
aF2921.0
aF2303.0
aF2708.0
aF3198.0
ag757
aI5
ag760
aV2teku0253
p765
aI87899
aI60058
aI00
aF7499.0
aF10063.0
aF6905.0
aF8427.0
aF16489.0
aF10962.0
aF6952.0
aF6296.0
aF6881.0
aF7425.0
aV\u4e09\u5341\u8def\u524d\uff08\uff11\u540d\u5b50\u3069\u3082\uff09_2
p766
aI5
ag15
(S'\x07\xdf\n\x06'
p767
tp768
Rp769
aV2teku0099
p770
aI55359
aI40150
aI00
aF2719.0
aF2676.0
aF3749.0
aF3419.0
aF1926.0
aF11144.0
aF11713.0
aF5960.0
aF3143.0
aF8910.0
ag766
aI5
ag769
aV2teku0100
p771
aI0
aI0
aI00
aF0.0
aF0.0
aF0.0
aF0.0
aF0.0
aF0.0
aF0.0
aF0.0
aF0.0
aF0.0
ag766
aI5
ag769
aV2teku0101
p772
aI0
aI0
aI00
aF0.0
aF0.0
aF0.0
aF0.0
aF0.0
aF0.0
aF0.0
aF0.0
aF0.0
aF0.0
ag766
aI5
ag769
aV2teku0102
p773
aI0
aI0
aI00
aF0.0
aF0.0
aF0.0
aF0.0
aF0.0
aF0.0
aF0.0
aF0.0
aF0.0
aF0.0
ag766
aI5
ag769
aV2teku0103
p774
aI0
aI0
aI00
aF0.0
aF0.0
aF0.0
aF0.0
aF0.0
aF0.0
aF0.0
aF0.0
aF0.0
aF0.0
aV\u6109\u5feb\u30d5\u30a1\u30df\u30ea\u30fc\uff34\uff06\uff26_2
p775
aI3
ag15
(S'\x07\xdf\n\x06'
p776
tp777
Rp778
aV2teku0104
p779
aI63943
aI48704
aI01
aF2760.0
aF11423.0
aF9658.0
aF7671.0
aF774.0
aF432.0
aF20912.0
aF2843.0
aF4451.0
aF3019.0
ag775
aI3
ag778
aV2teku0105
p780
aI95977
aI92557
aI01
aF9219.0
aF8786.0
aF491.0
aF9361.0
aF12654.0
aF13853.0
aF11214.0
aF7587.0
aF8635.0
aF14177.0
ag775
aI3
ag778
aV2teku0106
p781
aI72315
aI61334
aI01
aF10787.0
aF8603.0
aF10345.0
aF5113.0
aF6071.0
aF5303.0
aF8581.0
aF7058.0
aF0.0
aF10454.0
aV\uff2d\uff25\uff34\u2019\uff33
p782
aI3
ag15
(S'\x07\xdf\n\x06'
p783
tp784
Rp785
aV2teku0107
p786
aI65834
aI55045
aNaF7780.0
aF3766.0
aF4536.0
aF2812.0
aF14403.0
aF2569.0
aF16777.0
aF5735.0
aF6784.0
aF672.0
ag782
aI3
ag785
aV2teku0108
p787
aI49821
aI46488
aNaF3991.0
aF694.0
aF524.0
aF429.0
aF11938.0
aF1255.0
aF10998.0
aF528.0
aF9331.0
aF10133.0
ag782
aI3
ag785
aV2teku0109
p788
aI71138
aI51672
aNaF10057.0
aF3743.0
aF4106.0
aF5240.0
aF10524.0
aF1924.0
aF13235.0
aF11613.0
aF6389.0
aF4307.0
aV\u30c1\u30e3\u30ed_2
p789
aI3
ag15
(S'\x07\xdf\n\x06'
p790
tp791
Rp792
aV2teku0110
p793
aI0
aI0
aNaF0.0
aF0.0
aF0.0
aF0.0
aF0.0
aF0.0
aF0.0
aF0.0
aF0.0
aF0.0
ag789
aI3
ag792
aV2teku0111
p794
aI65004
aI47261
aNaF6872.0
aF7409.0
aF7644.0
aF6410.0
aF6576.0
aF4689.0
aF4829.0
aF6952.0
aF4941.0
aF8682.0
ag789
aI3
ag792
aV2teku0112
p795
aI76186
aI49152
aNaF1384.0
aF5027.0
aF7777.0
aF7993.0
aF11030.0
aF8175.0
aF8949.0
aF8085.0
aF8891.0
aF8875.0
aVROCK_2
p796
aI1
ag15
(S'\x07\xdf\n\x06'
p797
tp798
Rp799
aV2teku0113
p800
aI59839
aI43729
aNaF2728.0
aF1208.0
aF4310.0
aF1859.0
aF8627.0
aF15167.0
aF622.0
aF12477.0
aF9805.0
aF3036.0
aV\u30c1\u30fc\u30e0\u4f8d_2
p801
aI1
ag15
(S'\x07\xdf\n\x06'
p802
tp803
Rp804
aV2teku0114
p805
aI63202
aI48153
aNaF11745.0
aF5362.0
aF3986.0
aF7596.0
aF5224.0
aF10088.0
aF7185.0
aF2101.0
aF3049.0
aF6866.0
aV\u3068\u3068\u3081_2
p806
aI1
ag15
(S'\x07\xdf\n\x06'
p807
tp808
Rp809
aV2teku0115
p810
aI41769
aI30117
aI00
aF4881.0
aF1532.0
aF7342.0
aF981.0
aF390.0
aF15854.0
aF1320.0
aF3201.0
aF3094.0
aF3174.0
aVNK_2
p811
aI1
ag15
(S'\x07\xdf\n\x06'
p812
tp813
Rp814
aV2teku0116
p815
aI0
aI0
aI00
aF0.0
aF0.0
aF0.0
aF0.0
aF0.0
aF0.0
aF0.0
aF0.0
aF0.0
aF0.0
aVcandy\u2019s moon_2
p816
aI3
ag15
(S'\x07\xdf\n\x06'
p817
tp818
Rp819
aV2teku0117
p820
aI64346
aI48475
aI01
aF11382.0
aF11621.0
aF1937.0
aF5842.0
aF9036.0
aF3010.0
aF2465.0
aF1135.0
aF9089.0
aF8829.0
ag816
aI3
ag819
aV2teku0118
p821
aI104752
aI84059
aI01
aF18399.0
aF9901.0
aF13237.0
aF10197.0
aF8308.0
aF4008.0
aF8769.0
aF6497.0
aF11321.0
aF14115.0
ag816
aI3
ag819
aV2teku0119
p822
aI46906
aI32113
aI01
aF10091.0
aF6856.0
aF9096.0
aF4977.0
aF6210.0
aF2411.0
aF3218.0
aF393.0
aF1766.0
aF1888.0
aV\u30c1\u30fc\u30e0Housewife_2
p823
aI3
ag15
(S'\x07\xdf\n\x06'
p824
tp825
Rp826
aV2teku0120
p827
aI0
aI0
aNaF0.0
aF0.0
aF0.0
aF0.0
aF0.0
aF0.0
aF0.0
aF0.0
aF0.0
aF0.0
ag823
aI3
ag826
aV2teku0121
p828
aI0
aI0
aNaF0.0
aF0.0
aF0.0
aF0.0
aF0.0
aF0.0
aF0.0
aF0.0
aF0.0
aF0.0
ag823
aI3
ag826
aV2teku0122
p829
aI0
aI0
aNaF0.0
aF0.0
aF0.0
aF0.0
aF0.0
aF0.0
aF0.0
aF0.0
aF0.0
aF0.0
aV\u30c1\u30fc\u30e0\u30b9\u30de\u30a4\u30eb\u263a_2
p830
aI5
ag15
(S'\x07\xdf\n\x06'
p831
tp832
Rp833
aV2teku0123
p834
aI0
aI0
aNaF0.0
aF0.0
aF0.0
aF0.0
aF0.0
aF0.0
aF0.0
aF0.0
aF0.0
aF0.0
ag830
aI5
ag833
aV2teku0124
p835
aI0
aI0
aNaF0.0
aF0.0
aF0.0
aF0.0
aF0.0
aF0.0
aF0.0
aF0.0
aF0.0
aF0.0
ag830
aI5
ag833
aV2teku0125
p836
aI0
aI0
aNaF0.0
aF0.0
aF0.0
aF0.0
aF0.0
aF0.0
aF0.0
aF0.0
aF0.0
aF0.0
ag830
aI5
ag833
aV2teku0126
p837
aI0
aI0
aNaF0.0
aF0.0
aF0.0
aF0.0
aF0.0
aF0.0
aF0.0
aF0.0
aF0.0
aF0.0
ag830
aI5
ag833
aV2teku0127
p838
aI0
aI0
aNaF0.0
aF0.0
aF0.0
aF0.0
aF0.0
aF0.0
aF0.0
aF0.0
aF0.0
aF0.0
aV\u30ad\u30e8\u30b7
p839
aI1
ag15
(S'\x07\xdf\n\x06'
p840
tp841
Rp842
aV2teku0128
p843
aI0
aI0
aNaF0.0
aF0.0
aF0.0
aF0.0
aF0.0
aF0.0
aF0.0
aF0.0
aF0.0
aF0.0
aV\u30df\u30a4\u30ef
p844
aI1
ag15
(S'\x07\xdf\n\x06'
p845
tp846
Rp847
aV2teku0129
p848
aI0
aI0
aNaF0.0
aF0.0
aF0.0
aF0.0
aF0.0
aF0.0
aF0.0
aF0.0
aF0.0
aF0.0
aV\u30a4\u30b1\u30b3
p849
aI1
ag15
(S'\x07\xdf\n\x06'
p850
tp851
Rp852
aV2teku0130
p853
aI0
aI0
aNaF0.0
aF0.0
aF0.0
aF0.0
aF0.0
aF0.0
aF0.0
aF0.0
aF0.0
aF0.0
aV\u6ecb\u8cc0\u5730\u672c
p854
aI5
ag15
(S'\x07\xdf\n\x06'
p855
tp856
Rp857
aV2teku0131
p858
aI37854
aI28869
aI00
aF2164.0
aF5721.0
aF2669.0
aF6572.0
aF4485.0
aF2609.0
aF4193.0
aF3573.0
aF3147.0
aF2721.0
ag854
aI5
ag857
aV2teku0132
p859
aI49273
aI33522
aI00
aF5293.0
aF5898.0
aF7157.0
aF4073.0
aF651.0
aF5703.0
aF3870.0
aF10783.0
aF2852.0
aF2993.0
ag854
aI5
ag857
aV2teku0133
p860
aI0
aI0
aI00
aF0.0
aF0.0
aF0.0
aF0.0
aF0.0
aF0.0
aF0.0
aF0.0
aF0.0
aF0.0
ag854
aI5
ag857
aV2teku0134
p861
aI65728
aI45155
aI00
aF356.0
aF4651.0
aF5789.0
aF13527.0
aF9047.0
aF94.0
aF5158.0
aF12730.0
aF5816.0
aF8560.0
ag854
aI5
ag857
aV2teku0135
p862
aI32006
aI23423
aI00
aF5348.0
aF4024.0
aF1531.0
aF8691.0
aF380.0
aF0.0
aF5111.0
aF1710.0
aF50.0
aF5161.0
aV\u5fe0\u3084\u3093
p863
aI1
ag15
(S'\x07\xdf\n\x06'
p864
tp865
Rp866
aV2teku0136
p867
aI0
aI0
aNaF0.0
aF0.0
aF0.0
aF0.0
aF0.0
aF0.0
aF0.0
aF0.0
aF0.0
aF0.0
aV\uff13\uff0d\uff12\u30ac\u30fc\u30eb\u30ba
p868
aI3
ag15
(S'\x07\xdf\n\x06'
p869
tp870
Rp871
aV2teku0137
p872
aI90795
aI45542
aI00
aF5054.0
aF6624.0
aF5565.0
aF3630.0
aF10851.0
aF18325.0
aF8395.0
aF9912.0
aF21032.0
aF1407.0
ag868
aI3
ag871
aV2teku0138
p873
aI0
aI0
aI00
aF0.0
aF0.0
aF0.0
aF0.0
aF0.0
aF0.0
aF0.0
aF0.0
aF0.0
aF0.0
ag868
aI3
ag871
aV2teku0139
p874
aI57363
aI41294
aI00
aF3020.0
aF4057.0
aF7355.0
aF7661.0
aF12741.0
aF5161.0
aF5129.0
aF3856.0
aF7011.0
aF1372.0
aV\u30b1\u30f3\u30bb\u30c4
p875
aI3
ag15
(S'\x07\xdf\n\x06'
p876
tp877
Rp878
aV2teku0140
p879
aI0
aI0
aNaF0.0
aF0.0
aF0.0
aF0.0
aF0.0
aF0.0
aF0.0
aF0.0
aF0.0
aF0.0
ag875
aI3
ag878
aV2teku0141
p880
aI0
aI0
aNaF0.0
aF0.0
aF0.0
aF0.0
aF0.0
aF0.0
aF0.0
aF0.0
aF0.0
aF0.0
ag875
aI3
ag878
aV2teku0142
p881
aI0
aI0
aNaF0.0
aF0.0
aF0.0
aF0.0
aF0.0
aF0.0
aF0.0
aF0.0
aF0.0
aF0.0
aV\u3073\u308f\u3053\u30c1\u30fc\u30e0
p882
aI1
ag15
(S'\x07\xdf\n\x06'
p883
tp884
Rp885
aV2teku0143
p886
aI0
aI0
aNaF0.0
aF0.0
aF0.0
aF0.0
aF0.0
aF0.0
aF0.0
aF0.0
aF0.0
aF0.0
aV\u3072\u308d\u3053\u3061\u3083\u3093
p887
aI1
ag15
(S'\x07\xdf\n\x06'
p888
tp889
Rp890
aV2teku0144
p891
aI0
aI0
aNaF0.0
aF0.0
aF0.0
aF0.0
aF0.0
aF0.0
aF0.0
aF0.0
aF0.0
aF0.0
aV\u3088\u3063\u3061\u3083\u3093 \u3066\u308b\u3061\u3083\u3093
p892
aI3
ag15
(S'\x07\xdf\n\x06'
p893
tp894
Rp895
aV2teku0145
p896
aI58671
aI36289
aNaF2876.0
aF1663.0
aF6291.0
aF1696.0
aF12811.0
aF12249.0
aF8741.0
aF10753.0
aF668.0
aF923.0
ag892
aI3
ag895
aV2teku0146
p897
aI0
aI0
aNaF0.0
aF0.0
aF0.0
aF0.0
aF0.0
aF0.0
aF0.0
aF0.0
aF0.0
aF0.0
ag892
aI3
ag895
aV2teku0147
p898
aI0
aI0
aNaF0.0
aF0.0
aF0.0
aF0.0
aF0.0
aF0.0
aF0.0
aF0.0
aF0.0
aF0.0
aV\u305f\u304b\u3075\u307f
p899
aI5
ag15
(S'\x07\xdf\n\x06'
p900
tp901
Rp902
aV2teku0148
p903
aI83712
aI72762
aI01
aF3993.0
aF10890.0
aF13364.0
aF8928.0
aF13029.0
aF2253.0
aF8565.0
aF5410.0
aF11474.0
aF5806.0
ag899
aI5
ag902
aV2teku0149
p904
aI105210
aI73776
aI01
aF11015.0
aF12671.0
aF12392.0
aF14781.0
aF12679.0
aF6941.0
aF5348.0
aF5782.0
aF12717.0
aF10884.0
ag899
aI5
ag902
aV2teku0150
p905
aI46940
aI35657
aI01
aF8946.0
aF4742.0
aF3158.0
aF4809.0
aF6543.0
aF2796.0
aF2041.0
aF3938.0
aF6142.0
aF3825.0
ag899
aI5
ag902
aV2teku0151
p906
aI75650
aI51338
aI01
aF7940.0
aF15094.0
aF1947.0
aF7893.0
aF1.0
aF26546.0
aF30.0
aF8329.0
aF6534.0
aF1336.0
ag899
aI5
ag902
aV2teku0152
p907
aI69923
aI49483
aI01
aF3692.0
aF10114.0
aF10352.0
aF3074.0
aF16060.0
aF4226.0
aF5774.0
aF5526.0
aF8379.0
aF2726.0
aV\u30ec\u30d0\u30ca\u30c0\u30b8\u30e3
p908
aI5
ag15
(S'\x07\xdf\n\x06'
p909
tp910
Rp911
aV2teku0153
p912
aI0
aI0
aNaF0.0
aF0.0
aF0.0
aF0.0
aF0.0
aF0.0
aF0.0
aF0.0
aF0.0
aF0.0
ag908
aI5
ag911
aV2teku0154
p913
aI120027
aI98310
aNaF12949.0
aF10268.0
aF10705.0
aF10286.0
aF16639.0
aF3250.0
aF9488.0
aF17126.0
aF9545.0
aF19771.0
ag908
aI5
ag911
aV2teku0155
p914
aI112427
aI74496
aNaF12670.0
aF8512.0
aF10456.0
aF10426.0
aF15000.0
aF9785.0
aF9033.0
aF16835.0
aF9721.0
aF9989.0
ag908
aI5
ag911
aV2teku0156
p915
aI0
aI0
aNaF0.0
aF0.0
aF0.0
aF0.0
aF0.0
aF0.0
aF0.0
aF0.0
aF0.0
aF0.0
ag908
aI5
ag911
aV2teku0157
p916
aI0
aI0
aNaF0.0
aF0.0
aF0.0
aF0.0
aF0.0
aF0.0
aF0.0
aF0.0
aF0.0
aF0.0
aV\u5730\u5e95\u4eba
p917
aI5
ag15
(S'\x07\xdf\n\x06'
p918
tp919
Rp920
aV2teku0158
p921
aI82625
aI61109
aI01
aF4314.0
aF12283.0
aF5633.0
aF6774.0
aF9162.0
aF502.0
aF9120.0
aF16484.0
aF12017.0
aF6336.0
ag917
aI5
ag920
aV2teku0159
p922
aI83444
aI64142
aI01
aF9719.0
aF12334.0
aF11386.0
aF12076.0
aF6219.0
aF10390.0
aF3813.0
aF6436.0
aF5633.0
aF5438.0
ag917
aI5
ag920
aV2teku0160
p923
aI99016
aI67563
aI01
aF10891.0
aF11996.0
aF7046.0
aF3287.0
aF12881.0
aF8457.0
aF11216.0
aF11324.0
aF10371.0
aF11547.0
ag917
aI5
ag920
aV2teku0161
p924
aI176293
aI157951
aI01
aF11085.0
aF10958.0
aF17143.0
aF10386.0
aF22356.0
aF15350.0
aF24527.0
aF9693.0
aF15701.0
aF39094.0
ag917
aI5
ag920
aV2teku0162
p925
aI67507
aI52928
aI01
aF4614.0
aF6819.0
aF5691.0
aF7714.0
aF8763.0
aF3317.0
aF4396.0
aF8876.0
aF7753.0
aF9564.0
aV\u30ed\u30fc\u30f3\u30a6\u30a9\u30fc\u30af
p926
aI1
ag15
(S'\x07\xdf\n\x06'
p927
tp928
Rp929
aV2teku0163
p930
aI0
aI0
aNaF0.0
aF0.0
aF0.0
aF0.0
aF0.0
aF0.0
aF0.0
aF0.0
aF0.0
aF0.0
aV\u30a2\u30ad\u30e9
p931
aI1
ag15
(S'\x07\xdf\n\x06'
p932
tp933
Rp934
aV2teku0164
p935
aI40894
aI28858
aI00
aF2945.0
aF6498.0
aF101.0
aF5651.0
aF250.0
aF258.0
aF9800.0
aF5270.0
aF4660.0
aF5461.0
aV\uff4e\uff4f\uff4e
p936
aI1
ag15
(S'\x07\xdf\n\x06'
p937
tp938
Rp939
aV2teku0165
p940
aI77247
aI50829
aNaF8190.0
aF7150.0
aF5006.0
aF11677.0
aF9170.0
aF2748.0
aF11827.0
aF9893.0
aF6468.0
aF5118.0
aV\u30a2\u30c3\u30d7\u30eb\u30d1\u30a4
p941
aI1
ag15
(S'\x07\xdf\n\x06'
p942
tp943
Rp944
aV2teku0166
p945
aI0
aI0
aNaF0.0
aF0.0
aF0.0
aF0.0
aF0.0
aF0.0
aF0.0
aF0.0
aF0.0
aF0.0
aV\u5317\u6751
p946
aI1
ag15
(S'\x07\xdf\n\x06'
p947
tp948
Rp949
aV2teku0167
p950
aI22858
aI17169
aI00
aF1194.0
aF6892.0
aF1260.0
aF2282.0
aF6132.0
aF638.0
aF1551.0
aF558.0
aF806.0
aF1545.0
aV\u5065\u3084\u304b\u30af\u30e9\u30d6
p951
aI5
ag15
(S'\x07\xdf\n\x06'
p952
tp953
Rp954
aV2teku0168
p955
aI0
aI0
aNaF0.0
aF0.0
aF0.0
aF0.0
aF0.0
aF0.0
aF0.0
aF0.0
aF0.0
aF0.0
ag951
aI5
ag954
aV2teku0169
p956
aI0
aI0
aNaF0.0
aF0.0
aF0.0
aF0.0
aF0.0
aF0.0
aF0.0
aF0.0
aF0.0
aF0.0
ag951
aI5
ag954
aV2teku0170
p957
aI0
aI0
aNaF0.0
aF0.0
aF0.0
aF0.0
aF0.0
aF0.0
aF0.0
aF0.0
aF0.0
aF0.0
ag951
aI5
ag954
aV2teku0171
p958
aI0
aI0
aNaF0.0
aF0.0
aF0.0
aF0.0
aF0.0
aF0.0
aF0.0
aF0.0
aF0.0
aF0.0
ag951
aI5
ag954
aV2teku0172
p959
aI0
aI0
aNaF0.0
aF0.0
aF0.0
aF0.0
aF0.0
aF0.0
aF0.0
aF0.0
aF0.0
aF0.0
aV\uff2b\uff4f\uff55
p960
aI1
ag15
(S'\x07\xdf\n\x06'
p961
tp962
Rp963
aV2teku0173
p964
aI59034
aI42731
aNaF7161.0
aF4046.0
aF3498.0
aF2918.0
aF7495.0
aF27667.0
aF682.0
aF1376.0
aF2271.0
aF1920.0
aV\u30b4\u30c8\u30a6\u98df\u3079\u653e\u984c
p965
aI5
ag15
(S'\x07\xdf\n\x06'
p966
tp967
Rp968
aV2teku0174
p969
aI0
aI0
aNaF0.0
aF0.0
aF0.0
aF0.0
aF0.0
aF0.0
aF0.0
aF0.0
aF0.0
aF0.0
ag965
aI5
ag968
aV2teku0175
p970
aI61817
aI41265
aNaF6949.0
aF7316.0
aF6382.0
aF10087.0
aF3099.0
aF4704.0
aF4456.0
aF5257.0
aF6269.0
aF7298.0
ag965
aI5
ag968
aV2teku0176
p971
aI99521
aI96661
aNaF9047.0
aF8197.0
aF10979.0
aF9866.0
aF10365.0
aF11559.0
aF11027.0
aF10033.0
aF8120.0
aF10328.0
ag965
aI5
ag968
aV2teku0177
p972
aI95537
aI67061
aNaF8380.0
aF14933.0
aF13098.0
aF13263.0
aF6130.0
aF6825.0
aF7455.0
aF9816.0
aF6229.0
aF9408.0
ag965
aI5
ag968
aV2teku0178
p973
aI49079
aI32702
aNaF0.0
aF997.0
aF5447.0
aF8918.0
aF4551.0
aF8022.0
aF5378.0
aF6384.0
aF7373.0
aF2009.0
aV\u4e0a\u91ce\u5de5\u52d9\u5e97
p974
aI3
ag15
(S'\x07\xdf\n\x06'
p975
tp976
Rp977
aV2teku0179
p978
aI0
aI0
aNaF0.0
aF0.0
aF0.0
aF0.0
aF0.0
aF0.0
aF0.0
aF0.0
aF0.0
aF0.0
ag974
aI3
ag977
aV2teku0180
p979
aI0
aI0
aNaF0.0
aF0.0
aF0.0
aF0.0
aF0.0
aF0.0
aF0.0
aF0.0
aF0.0
aF0.0
ag974
aI3
ag977
aV2teku0181
p980
aI0
aI0
aNaF0.0
aF0.0
aF0.0
aF0.0
aF0.0
aF0.0
aF0.0
aF0.0
aF0.0
aF0.0
aV\u30d7\u30af\u30d7\u30af
p981
aI5
ag15
(S'\x07\xdf\n\x06'
p982
tp983
Rp984
aV2teku0182
p985
aI61389
aI42305
aI01
aF7715.0
aF5827.0
aF5672.0
aF5557.0
aF6674.0
aF6670.0
aF7142.0
aF5908.0
aF4038.0
aF6186.0
ag981
aI5
ag984
aV2teku0183
p986
aI75331
aI56656
aI01
aF8893.0
aF8600.0
aF8871.0
aF11488.0
aF3743.0
aF1286.0
aF3011.0
aF9614.0
aF9407.0
aF10418.0
ag981
aI5
ag984
aV2teku0184
p987
aI95872
aI71885
aI01
aF13426.0
aF11810.0
aF10664.0
aF12887.0
aF4066.0
aF3210.0
aF5269.0
aF13014.0
aF10620.0
aF10906.0
ag981
aI5
ag984
aV2teku0185
p988
aI70562
aI52775
aI01
aF8177.0
aF9692.0
aF6920.0
aF13461.0
aF6427.0
aF4552.0
aF2304.0
aF6271.0
aF7107.0
aF5651.0
ag981
aI5
ag984
aV2teku0186
p989
aI83286
aI59677
aI01
aF8234.0
aF10281.0
aF8274.0
aF7466.0
aF5309.0
aF7894.0
aF5260.0
aF15306.0
aF8988.0
aF6274.0
aV\uff30\uff21\uff30\uff21\uff2c\uff25\uff27\uff35\uff21\uff33
p990
aI5
ag15
(S'\x07\xdf\n\x06'
p991
tp992
Rp993
aV2teku0187
p994
aI256051
aI216794
aI01
aF26555.0
aF31564.0
aF25867.0
aF27603.0
aF23280.0
aF8372.0
aF32401.0
aF28782.0
aF23202.0
aF28425.0
ag990
aI5
ag993
aV2teku0188
p995
aI94177
aI89852
aI01
aF6654.0
aF8856.0
aF10745.0
aF10732.0
aF6200.0
aF8862.0
aF14770.0
aF10154.0
aF6431.0
aF10773.0
ag990
aI5
ag993
aV2teku0189
p996
aI192315
aI154523
aI01
aF10842.0
aF11967.0
aF15353.0
aF13487.0
aF15300.0
aF28168.0
aF28954.0
aF22740.0
aF27639.0
aF17865.0
ag990
aI5
ag993
aV2teku0190
p997
aI63405
aI50673
aI01
aF8867.0
aF7280.0
aF4709.0
aF10065.0
aF3660.0
aF4396.0
aF87.0
aF7961.0
aF8849.0
aF7531.0
ag990
aI5
ag993
aV2teku0191
p998
aI261267
aI215450
aI01
aF25750.0
aF28631.0
aF32498.0
aF38781.0
aF27406.0
aF31241.0
aF24787.0
aF19352.0
aF15721.0
aF17100.0
aV\u30d2\u30c7\u30c1\u30e3\u30f3
p999
aI1
ag15
(S'\x07\xdf\n\x06'
p1000
tp1001
Rp1002
aV2teku0192
p1003
aI0
aI0
aNaF0.0
aF0.0
aF0.0
aF0.0
aF0.0
aF0.0
aF0.0
aF0.0
aF0.0
aF0.0
aV\u30df\u30c3\u30c1\u30e3\u30f3
p1004
aI1
ag15
(S'\x07\xdf\n\x06'
p1005
tp1006
Rp1007
aV2teku0193
p1008
aI0
aI0
aNaF0.0
aF0.0
aF0.0
aF0.0
aF0.0
aF0.0
aF0.0
aF0.0
aF0.0
aF0.0
aV\u5149\u30d5\u30a1\u30a4\u30d0\u30fc
p1009
aI5
ag15
(S'\x07\xdf\n\x06'
p1010
tp1011
Rp1012
aV2teku0194
p1013
aI80556
aI56334
aI01
aF11601.0
aF7688.0
aF8296.0
aF9138.0
aF2510.0
aF11816.0
aF8603.0
aF6757.0
aF8008.0
aF6139.0
ag1009
aI5
ag1012
aV2teku0195
p1014
aI123152
aI62122
aI01
aF13844.0
aF16679.0
aF6535.0
aF15390.0
aF12766.0
aF11828.0
aF12331.0
aF12931.0
aF13722.0
aF7126.0
ag1009
aI5
ag1012
aV2teku0196
p1015
aI127521
aI89548
aI01
aF11356.0
aF12136.0
aF14003.0
aF12517.0
aF13304.0
aF13187.0
aF12524.0
aF14268.0
aF10901.0
aF13325.0
ag1009
aI5
ag1012
aV2teku0197
p1016
aI118337
aI78476
aI01
aF13158.0
aF13214.0
aF22875.0
aF11697.0
aF10587.0
aF4092.0
aF11449.0
aF12146.0
aF10663.0
aF8456.0
ag1009
aI5
ag1012
aV2teku0198
p1017
aI73809
aI57497
aI01
aF10301.0
aF10046.0
aF9078.0
aF9458.0
aF2920.0
aF2796.0
aF1790.0
aF7202.0
aF10217.0
aF10001.0
aV\u3051\u3084\u304d+1
p1018
aI5
ag15
(S'\x07\xdf\n\x06'
p1019
tp1020
Rp1021
aV2teku0199
p1022
aI123031
aI90864
aNaF4656.0
aF7650.0
aF9390.0
aF11140.0
aF18729.0
aF19155.0
aF26691.0
aF9704.0
aF6618.0
aF9298.0
ag1018
aI5
ag1021
aV2teku0200
p1023
aI41632
aI44650
aNaF1459.0
aF6724.0
aF3025.0
aF3901.0
aF644.0
aF8799.0
aF11895.0
aF1539.0
aF1906.0
aF1740.0
ag1018
aI5
ag1021
aV2teku0201
p1024
aI88190
aI60927
aNaF13315.0
aF10615.0
aF11790.0
aF5387.0
aF14614.0
aF15712.0
aF1393.0
aF10006.0
aF2919.0
aF2439.0
ag1018
aI5
ag1021
aV2teku0202
p1025
aI0
aI0
aNaF0.0
aF0.0
aF0.0
aF0.0
aF0.0
aF0.0
aF0.0
aF0.0
aF0.0
aF0.0
ag1018
aI5
ag1021
aV2teku0203
p1026
aI61933
aI52317
aNaF12953.0
aF2197.0
aF2692.0
aF10731.0
aF3860.0
aF4453.0
aF23302.0
aF1745.0
aF0.0
aF0.0
aV\u304f\u3057\u304b\u3064\uff12\uff10\uff11\uff15
p1027
aI5
ag15
(S'\x07\xdf\n\x06'
p1028
tp1029
Rp1030
aV2teku0204
p1031
aI70675
aI49380
aNaF8245.0
aF7736.0
aF6090.0
aF7460.0
aF783.0
aF2042.0
aF17002.0
aF7285.0
aF7137.0
aF6895.0
ag1027
aI5
ag1030
aV2teku0205
p1032
aI59051
aI61493
aNaF8302.0
aF3904.0
aF3557.0
aF8551.0
aF5359.0
aF10791.0
aF5854.0
aF2061.0
aF7813.0
aF2859.0
ag1027
aI5
ag1030
aV2teku0206
p1033
aI54871
aI42472
aNaF8631.0
aF3899.0
aF4486.0
aF8367.0
aF4826.0
aF5820.0
aF5252.0
aF3569.0
aF6475.0
aF3546.0
ag1027
aI5
ag1030
aV2teku0207
p1034
aI52831
aI40663
aNaF8703.0
aF9515.0
aF70.0
aF2471.0
aF7326.0
aF2872.0
aF4381.0
aF6855.0
aF8398.0
aF2240.0
ag1027
aI5
ag1030
aV2teku0208
p1035
aI35302
aI34106
aNaF286.0
aF6296.0
aF1457.0
aF1773.0
aF1287.0
aF2466.0
aF3502.0
aF10593.0
aF7102.0
aF540.0
aV\u3081\u3056\u305b\u30ab\u30e2\u30b7\u30ab
p1036
aI3
ag15
(S'\x07\xdf\n\x06'
p1037
tp1038
Rp1039
aV2teku0209
p1040
aI88157
aI49941
aNaF6189.0
aF10440.0
aF13124.0
aF12988.0
aF14680.0
aF7996.0
aF2793.0
aF7656.0
aF6098.0
aF6193.0
ag1036
aI3
ag1039
aV2teku0210
p1041
aI73176
aI51118
aNaF6307.0
aF8555.0
aF15281.0
aF10018.0
aF0.0
aF4643.0
aF7987.0
aF5242.0
aF11387.0
aF3756.0
ag1036
aI3
ag1039
aV2teku0211
p1042
aI82265
aI57887
aNaF4721.0
aF8016.0
aF10443.0
aF14664.0
aF5530.0
aF6308.0
aF9259.0
aF7877.0
aF8405.0
aF7042.0
aV\u30e8\u30c3\u30b5\u30f3\uff15\uff15
p1043
aI1
ag15
(S'\x07\xdf\n\x06'
p1044
tp1045
Rp1046
aV2teku0212
p1047
aI0
aI0
aNaF0.0
aF0.0
aF0.0
aF0.0
aF0.0
aF0.0
aF0.0
aF0.0
aF0.0
aF0.0
aV\u30b1\u30a4\u30ac\u30a6
p1048
aI3
ag15
(S'\x07\xdf\n\x06'
p1049
tp1050
Rp1051
aV2teku0213
p1052
aI0
aI0
aNaF0.0
aF0.0
aF0.0
aF0.0
aF0.0
aF0.0
aF0.0
aF0.0
aF0.0
aF0.0
ag1048
aI3
ag1051
aV2teku0214
p1053
aI0
aI0
aNaF0.0
aF0.0
aF0.0
aF0.0
aF0.0
aF0.0
aF0.0
aF0.0
aF0.0
aF0.0
ag1048
aI3
ag1051
aV2teku0215
p1054
aI0
aI0
aNaF0.0
aF0.0
aF0.0
aF0.0
aF0.0
aF0.0
aF0.0
aF0.0
aF0.0
aF0.0
aVINTERNACIONAL
p1055
aI5
ag15
(S'\x07\xdf\n\x06'
p1056
tp1057
Rp1058
aV2teku0216
p1059
aI150155
aI116530
aNaF14051.0
aF13270.0
aF13790.0
aF12930.0
aF18691.0
aF3108.0
aF27969.0
aF14705.0
aF15719.0
aF15922.0
ag1055
aI5
ag1058
aV2teku0217
p1060
aI108547
aI83189
aNaF7062.0
aF11179.0
aF7524.0
aF9213.0
aF10986.0
aF3710.0
aF15636.0
aF17691.0
aF11748.0
aF13798.0
ag1055
aI5
ag1058
aV2teku0218
p1061
aI70176
aI51798
aNaF9339.0
aF11943.0
aF5404.0
aF4819.0
aF3551.0
aF2666.0
aF8701.0
aF9270.0
aF5831.0
aF8652.0
ag1055
aI5
ag1058
aV2teku0220
p1062
aI44690
aI30975
aNaF6208.0
aF6567.0
aF3763.0
aF1763.0
aF4308.0
aF1938.0
aF7197.0
aF4754.0
aF3613.0
aF4579.0
ag1055
aI5
ag1058
aV2teku0389
p1063
aI0
aI0
aNaF0.0
aF0.0
aF0.0
aF0.0
aF0.0
aF0.0
aF0.0
aF0.0
aF0.0
aF0.0
aV\uff43\uff48\uff49\uff50\uff50\uff59
p1064
aI1
ag15
(S'\x07\xdf\n\x06'
p1065
tp1066
Rp1067
aV2teku0221
p1068
aI100557
aI93558
aI01
aF8536.0
aF7937.0
aF8737.0
aF9530.0
aF12819.0
aF14183.0
aF12519.0
aF8561.0
aF7576.0
aF10159.0
aV\u30c9\u30ed\u30f3\u30b8\u30e7\u3055\u307e
p1069
aI5
ag15
(S'\x07\xdf\n\x06'
p1070
tp1071
Rp1072
aV2teku0222
p1073
aI71538
aI50722
aI01
aF5772.0
aF9087.0
aF8023.0
aF5408.0
aF5228.0
aF3249.0
aF7080.0
aF9064.0
aF10223.0
aF8404.0
ag1069
aI5
ag1072
aV2teku0223
p1074
aI79373
aI55541
aI01
aF6886.0
aF8030.0
aF6390.0
aF6188.0
aF9891.0
aF8214.0
aF7159.0
aF7827.0
aF6314.0
aF12474.0
ag1069
aI5
ag1072
aV2teku0224
p1075
aI62824
aI44088
aI01
aF1465.0
aF6126.0
aF5574.0
aF7679.0
aF6521.0
aF4574.0
aF7481.0
aF7069.0
aF7623.0
aF8712.0
ag1069
aI5
ag1072
aV2teku0225
p1076
aI65502
aI55610
aI01
aF6238.0
aF6486.0
aF7505.0
aF7620.0
aF5610.0
aF10205.0
aF4365.0
aF5289.0
aF5968.0
aF6216.0
ag1069
aI5
ag1072
aV2teku0226
p1077
aI106914
aI77985
aI01
aF8881.0
aF14905.0
aF9913.0
aF7501.0
aF9834.0
aF12466.0
aF6761.0
aF13053.0
aF9508.0
aF14092.0
aV\u3075\u304f\u3061\u3083\u3093\u305a
p1078
aI3
ag15
(S'\x07\xdf\n\x06'
p1079
tp1080
Rp1081
aV2teku0227
p1082
aI0
aI0
aNaF0.0
aF0.0
aF0.0
aF0.0
aF0.0
aF0.0
aF0.0
aF0.0
aF0.0
aF0.0
ag1078
aI3
ag1081
aV2teku0228
p1083
aI0
aI0
aNaF0.0
aF0.0
aF0.0
aF0.0
aF0.0
aF0.0
aF0.0
aF0.0
aF0.0
aF0.0
ag1078
aI3
ag1081
aV2teku0229
p1084
aI0
aI0
aNaF0.0
aF0.0
aF0.0
aF0.0
aF0.0
aF0.0
aF0.0
aF0.0
aF0.0
aF0.0
aV\u306f\u3044\u3001\u5927\u6a4b\u3067\u3059\u3002
p1085
aI3
ag15
(S'\x07\xdf\n\x06'
p1086
tp1087
Rp1088
aV2teku0230
p1089
aI36212
aI26853
aNaF3310.0
aF2296.0
aF3342.0
aF4581.0
aF2314.0
aF5712.0
aF4710.0
aF2245.0
aF4328.0
aF3374.0
ag1085
aI3
ag1088
aV2teku0231
p1090
aI59338
aI44330
aNaF1077.0
aF3903.0
aF7157.0
aF4081.0
aF11332.0
aF0.0
aF6672.0
aF1998.0
aF13152.0
aF9966.0
ag1085
aI3
ag1088
aV2teku0232
p1091
aI55762
aI79645
aNaF6838.0
aF6547.0
aF2779.0
aF6673.0
aF4801.0
aF3649.0
aF0.0
aF13430.0
aF9306.0
aF1739.0
aV\u3076\u3093\u3070\u30fb\u307c\uff5e\u3093
p1092
aI3
ag15
(S'\x07\xdf\n\x06'
p1093
tp1094
Rp1095
aV2teku0233
p1096
aI37891
aI29004
aNaF4916.0
aF3635.0
aF5284.0
aF5552.0
aF304.0
aF936.0
aF4674.0
aF5543.0
aF3208.0
aF3839.0
ag1092
aI3
ag1095
aV2teku0234
p1097
aI54407
aI46373
aNaF2245.0
aF7787.0
aF190.0
aF8265.0
aF6549.0
aF4549.0
aF8659.0
aF5845.0
aF5725.0
aF4593.0
ag1092
aI3
ag1095
aV2teku0235
p1098
aI97015
aI74572
aNaF7959.0
aF12690.0
aF8234.0
aF19061.0
aF533.0
aF13153.0
aF1675.0
aF14592.0
aF10267.0
aF8851.0
aVHORIZON
p1099
aI1
ag15
(S'\x07\xdf\n\x06'
p1100
tp1101
Rp1102
aV2teku0236
p1103
aI0
aI0
aNaF0.0
aF0.0
aF0.0
aF0.0
aF0.0
aF0.0
aF0.0
aF0.0
aF0.0
aF0.0
aV\uff22\uff21\uff22\uff21\u59eb
p1104
aI3
ag15
(S'\x07\xdf\n\x06'
p1105
tp1106
Rp1107
aV2teku0237
p1108
aI76645
aI63964
aNaF10383.0
aF3380.0
aF9794.0
aF1790.0
aF0.0
aF4734.0
aF21065.0
aF12847.0
aF8658.0
aF3994.0
ag1104
aI3
ag1107
aV2teku0238
p1109
aI49906
aI35903
aNaF3374.0
aF5726.0
aF2872.0
aF1655.0
aF4253.0
aF9256.0
aF12267.0
aF4946.0
aF1414.0
aF4143.0
ag1104
aI3
ag1107
aV2teku0239
p1110
aI59515
aI44392
aNaF5185.0
aF8236.0
aF4788.0
aF6510.0
aF3157.0
aF7001.0
aF9032.0
aF5331.0
aF5209.0
aF5066.0
aV\u5357\u86ee
p1111
aI3
ag15
(S'\x07\xdf\n\x06'
p1112
tp1113
Rp1114
aV2teku0240
p1115
aI146434
aI99285
aI01
aF16434.0
aF12984.0
aF35188.0
aF15647.0
aF8543.0
aF6730.0
aF19360.0
aF17408.0
aF7789.0
aF6351.0
ag1111
aI3
ag1114
aV2teku0290
p1116
aI51170
aI33934
aI01
aF4811.0
aF2343.0
aF1112.0
aF6882.0
aF4445.0
aF2190.0
aF12118.0
aF6519.0
aF3962.0
aF6788.0
ag1111
aI3
ag1114
aV2teku0291
p1117
aI52334
aI38339
aI01
aF14499.0
aF4749.0
aF4039.0
aF6105.0
aF5649.0
aF3666.0
aF3639.0
aF3450.0
aF3574.0
aF2964.0
aV\u307c\u3063\u3061M
p1118
aI1
ag15
(S'\x07\xdf\n\x06'
p1119
tp1120
Rp1121
aV2teku0241
p1122
aI49213
aI38000
aI00
aF7359.0
aF2454.0
aF1549.0
aF2308.0
aF3763.0
aF4394.0
aF18165.0
aF4757.0
aF902.0
aF3562.0
aVBLFC
p1123
aI5
ag15
(S'\x07\xdf\n\x06'
p1124
tp1125
Rp1126
aV2teku0242
p1127
aI83100
aI71041
aI01
aF7953.0
aF12350.0
aF20244.0
aF17240.0
aF9243.0
aF2886.0
aF3524.0
aF1147.0
aF3168.0
aF5345.0
ag1123
aI5
ag1126
aV2teku0243
p1128
aI96438
aI79423
aI01
aF10575.0
aF13262.0
aF15629.0
aF11205.0
aF4501.0
aF4788.0
aF8948.0
aF6235.0
aF14151.0
aF7144.0
ag1123
aI5
ag1126
aV2teku0244
p1129
aI88914
aI67773
aI01
aF9734.0
aF9003.0
aF14784.0
aF7787.0
aF15037.0
aF7217.0
aF5646.0
aF4286.0
aF11102.0
aF4318.0
ag1123
aI5
ag1126
aV2teku0245
p1130
aI44448
aI33133
aI01
aF10929.0
aF4018.0
aF14110.0
aF4255.0
aF2821.0
aF4735.0
aF1698.0
aF1151.0
aF731.0
aF0.0
ag1123
aI5
ag1126
aV2teku0246
p1131
aI40655
aI34112
aI01
aF1519.0
aF7062.0
aF8743.0
aF5552.0
aF6427.0
aF9038.0
aF1250.0
aF580.0
aF171.0
aF313.0
aVPOM-\uff12
p1132
aI3
ag15
(S'\x07\xdf\n\x06'
p1133
tp1134
Rp1135
aV2teku0247
p1136
aI242312
aI190577
aI01
aF26291.0
aF34467.0
aF24158.0
aF28734.0
aF26030.0
aF5798.0
aF14889.0
aF14026.0
aF27790.0
aF40129.0
ag1132
aI3
ag1135
aV2teku0248
p1137
aI49309
aI39472
aI01
aF7482.0
aF396.0
aF8179.0
aF2843.0
aF2324.0
aF760.0
aF6244.0
aF5652.0
aF7861.0
aF7568.0
ag1132
aI3
ag1135
aV2teku0249
p1138
aI38913
aI27968
aI01
aF0.0
aF0.0
aF0.0
aF988.0
aF4068.0
aF1494.0
aF1481.0
aF14033.0
aF15392.0
aF1457.0
aV\uff34eam momo
p1139
aI1
ag15
(S'\x07\xdf\n\x06'
p1140
tp1141
Rp1142
aV2teku0254
p1143
aI130016
aI103847
aI01
aF12774.0
aF9557.0
aF14273.0
aF12395.0
aF5772.0
aF27552.0
aF9592.0
aF12336.0
aF12863.0
aF12902.0
aV\u30c1\u30fc\u30e0\u30de\u30c3\u30b9\u30eb
p1144
aI1
ag15
(S'\x07\xdf\n\x06'
p1145
tp1146
Rp1147
aV2teku0255
p1148
aI53540
aI47613
aNaF6383.0
aF6390.0
aF5202.0
aF6319.0
aF6062.0
aF3029.0
aF6300.0
aF5737.0
aF3917.0
aF4201.0
aVHEROES
p1149
aI3
ag15
(S'\x07\xdf\n\x06'
p1150
tp1151
Rp1152
aV2teku0256
p1153
aI27699
aI20458
aNaF2259.0
aF2513.0
aF4979.0
aF1167.0
aF4109.0
aF4615.0
aF2743.0
aF3324.0
aF1960.0
aF30.0
ag1149
aI3
ag1152
aV2teku0257
p1154
aI50013
aI50238
aNaF7183.0
aF5590.0
aF3948.0
aF6543.0
aF2818.0
aF7761.0
aF8530.0
aF7640.0
aF0.0
aF0.0
ag1149
aI3
ag1152
aV2teku0258
p1155
aI70866
aI56717
aNaF3187.0
aF15247.0
aF2538.0
aF5965.0
aF15287.0
aF8190.0
aF11184.0
aF2595.0
aF2628.0
aF4045.0
aV\u79c1\u7acb\u3042\u3089\u307e\u5b66\u5712
p1156
aI5
ag15
(S'\x07\xdf\n\x06'
p1157
tp1158
Rp1159
aV2teku0259
p1160
aI0
aI0
aNaF0.0
aF0.0
aF0.0
aF0.0
aF0.0
aF0.0
aF0.0
aF0.0
aF0.0
aF0.0
ag1156
aI5
ag1159
aV2teku0260
p1161
aI85064
aI61151
aNaF8450.0
aF12747.0
aF7610.0
aF10491.0
aF7459.0
aF23367.0
aF4405.0
aF1903.0
aF4447.0
aF4185.0
ag1156
aI5
ag1159
aV2teku0261
p1162
aI50204
aI25786
aNaF3844.0
aF10351.0
aF3525.0
aF2914.0
aF6264.0
aF7756.0
aF10681.0
aF1843.0
aF1483.0
aF1543.0
ag1156
aI5
ag1159
aV2teku0262
p1163
aI63210
aI52451
aNaF10855.0
aF8736.0
aF9649.0
aF5080.0
aF4242.0
aF7692.0
aF2677.0
aF4213.0
aF4911.0
aF5155.0
ag1156
aI5
ag1159
aV2teku0263
p1164
aI0
aI0
aNaF0.0
aF0.0
aF0.0
aF0.0
aF0.0
aF0.0
aF0.0
aF0.0
aF0.0
aF0.0
aV\u3042\u3057\u3086
p1165
aI3
ag15
(S'\x07\xdf\n\x06'
p1166
tp1167
Rp1168
aV2teku0264
p1169
aI61223
aI47846
aNaF9227.0
aF3353.0
aF1336.0
aF2681.0
aF14779.0
aF6729.0
aF7240.0
aF5494.0
aF7275.0
aF3109.0
ag1165
aI3
ag1168
aV2teku0265
p1170
aI66076
aI43278
aNaF1969.0
aF8291.0
aF9871.0
aF7387.0
aF7362.0
aF7936.0
aF6231.0
aF5617.0
aF7963.0
aF3449.0
ag1165
aI3
ag1168
aV2teku0266
p1171
aI49923
aI34573
aNaF2077.0
aF3630.0
aF375.0
aF4155.0
aF7073.0
aF7328.0
aF7523.0
aF7096.0
aF5777.0
aF4889.0
aV\u76ee\u6a19\u8ddd\u96e2\u4e00\u4eba\u3067100\uff4b\uff4d
p1172
aI1
ag15
(S'\x07\xdf\n\x06'
p1173
tp1174
Rp1175
aV2teku0267
p1176
aI0
aI0
aNaF0.0
aF0.0
aF0.0
aF0.0
aF0.0
aF0.0
aF0.0
aF0.0
aF0.0
aF0.0
aV\uff34
p1177
aI1
ag15
(S'\x07\xdf\n\x06'
p1178
tp1179
Rp1180
aV2teku0268
p1181
aI0
aI0
aNaF0.0
aF0.0
aF0.0
aF0.0
aF0.0
aF0.0
aF0.0
aF0.0
aF0.0
aF0.0
aV\u30dc\u30fc\u30b5\u30f3\u30ba
p1182
aI1
ag15
(S'\x07\xdf\n\x06'
p1183
tp1184
Rp1185
aV2teku0269
p1186
aI0
aI0
aNaF0.0
aF0.0
aF0.0
aF0.0
aF0.0
aF0.0
aF0.0
aF0.0
aF0.0
aF0.0
aV\u30df\u30e4\u3061\u3083\u3093
p1187
aI1
ag15
(S'\x07\xdf\n\x06'
p1188
tp1189
Rp1190
aV2teku0270
p1191
aI0
aI0
aNaF0.0
aF0.0
aF0.0
aF0.0
aF0.0
aF0.0
aF0.0
aF0.0
aF0.0
aF0.0
aV\u7f8e\u7d00\u3061\u3083\u3093
p1192
aI1
ag15
(S'\x07\xdf\n\x06'
p1193
tp1194
Rp1195
aV2teku0271
p1196
aI0
aI0
aNaF0.0
aF0.0
aF0.0
aF0.0
aF0.0
aF0.0
aF0.0
aF0.0
aF0.0
aF0.0
aV\u30de\u30fc\u30df\u30e4\u30f3
p1197
aI1
ag15
(S'\x07\xdf\n\x06'
p1198
tp1199
Rp1200
aV2teku0272
p1201
aI0
aI0
aNaF0.0
aF0.0
aF0.0
aF0.0
aF0.0
aF0.0
aF0.0
aF0.0
aF0.0
aF0.0
aV\u30d5\u30c3\u30b3
p1202
aI1
ag15
(S'\x07\xdf\n\x06'
p1203
tp1204
Rp1205
aV2teku0273
p1206
aI81220
aI60538
aI01
aF9402.0
aF14836.0
aF1606.0
aF11966.0
aF5832.0
aF4094.0
aF16349.0
aF3315.0
aF10567.0
aF3253.0
aV\u30b7\u30b2\u3061\u3083\u3093
p1207
aI1
ag15
(S'\x07\xdf\n\x06'
p1208
tp1209
Rp1210
aV2teku0274
p1211
aI78994
aI56259
aI01
aF5704.0
aF7685.0
aF6838.0
aF6656.0
aF12848.0
aF4503.0
aF4938.0
aF6703.0
aF16121.0
aF6998.0
aV\u30b7\u30d0\u30c1\u30e3\u30f3
p1212
aI1
ag15
(S'\x07\xdf\n\x06'
p1213
tp1214
Rp1215
aV2teku0275
p1216
aI0
aI0
aNaF0.0
aF0.0
aF0.0
aF0.0
aF0.0
aF0.0
aF0.0
aF0.0
aF0.0
aF0.0
aV\u3061\u30fc\u3080\u3044\u3058
p1217
aI5
ag15
(S'\x07\xdf\n\x06'
p1218
tp1219
Rp1220
aV2teku0276
p1221
aI135347
aI95175
aI01
aF12853.0
aF12924.0
aF12586.0
aF12963.0
aF18081.0
aF15429.0
aF11924.0
aF12072.0
aF12954.0
aF13561.0
ag1217
aI5
ag1220
aV2teku0277
p1222
aI177811
aI130772
aI01
aF16012.0
aF14706.0
aF13739.0
aF14282.0
aF24304.0
aF20585.0
aF22988.0
aF14297.0
aF17468.0
aF19430.0
ag1217
aI5
ag1220
aV2teku0278
p1223
aI92708
aI71837
aI01
aF8481.0
aF9509.0
aF3312.0
aF6854.0
aF16795.0
aF12592.0
aF15287.0
aF9367.0
aF6109.0
aF4402.0
ag1217
aI5
ag1220
aV2teku0279
p1224
aI141050
aI102551
aI01
aF9286.0
aF15618.0
aF15828.0
aF11216.0
aF21575.0
aF17894.0
aF17775.0
aF7191.0
aF10780.0
aF13887.0
ag1217
aI5
ag1220
aV2teku0280
p1225
aI129047
aI88226
aI01
aF10205.0
aF9690.0
aF11136.0
aF13510.0
aF11877.0
aF16994.0
aF16858.0
aF12078.0
aF14909.0
aF11790.0
aV\u30c8\u30fc\u30e0\u30b9
p1226
aI1
ag15
(S'\x07\xdf\n\x06'
p1227
tp1228
Rp1229
aV2teku0281
p1230
aI86621
aI61562
aI01
aF5572.0
aF11143.0
aF8895.0
aF10307.0
aF8578.0
aF13263.0
aF11532.0
aF7342.0
aF4313.0
aF5676.0
aV\u3051\u3081\u3071\u3052
p1231
aI3
ag15
(S'\x07\xdf\n\x06'
p1232
tp1233
Rp1234
aV2teku0282
p1235
aI75994
aI55495
aNaF4177.0
aF5301.0
aF6841.0
aF6812.0
aF2939.0
aF581.0
aF15600.0
aF13557.0
aF8475.0
aF11711.0
ag1231
aI3
ag1234
aV2teku0283
p1236
aI39192
aI36485
aNaF4536.0
aF2736.0
aF3108.0
aF3040.0
aF1269.0
aF3328.0
aF5962.0
aF3653.0
aF4615.0
aF6945.0
ag1231
aI3
ag1234
aV2teku0284
p1237
aI0
aI0
aNaF0.0
aF0.0
aF0.0
aF0.0
aF0.0
aF0.0
aF0.0
aF0.0
aF0.0
aF0.0
aVRuralLab feat. kyano
p1238
aI5
ag15
(S'\x07\xdf\n\x06'
p1239
tp1240
Rp1241
aV2teku0285
p1242
aI40347
aI32163
aNaF5972.0
aF3748.0
aF4224.0
aF6750.0
aF81.0
aF100.0
aF4167.0
aF5539.0
aF4570.0
aF5196.0
ag1238
aI5
ag1241
aV2teku0286
p1243
aI53699
aI51666
aNaF5025.0
aF5256.0
aF5344.0
aF6471.0
aF1757.0
aF6660.0
aF5370.0
aF6369.0
aF5337.0
aF6110.0
ag1238
aI5
ag1241
aV2teku0287
p1244
aI61246
aI47312
aNaF0.0
aF0.0
aF8737.0
aF9918.0
aF11372.0
aF3588.0
aF7240.0
aF7742.0
aF6568.0
aF6081.0
ag1238
aI5
ag1241
aV2teku0288
p1245
aI63702
aI46874
aNaF7431.0
aF5785.0
aF7328.0
aF11189.0
aF0.0
aF2335.0
aF7557.0
aF7424.0
aF7348.0
aF7305.0
ag1238
aI5
ag1241
aV2teku0289
p1246
aI87221
aI54675
aNaF7519.0
aF9389.0
aF9172.0
aF9074.0
aF6985.0
aF721.0
aF7859.0
aF13932.0
aF11379.0
aF11191.0
aV\u30ad\u30e3\u30b5\u30ea\u30f3
p1247
aI1
ag15
(S'\x07\xdf\n\x06'
p1248
tp1249
Rp1250
aV2teku0292
p1251
aI0
aI0
aNaF0.0
aF0.0
aF0.0
aF0.0
aF0.0
aF0.0
aF0.0
aF0.0
aF0.0
aF0.0
aV\u304f\u308a\u306e\u6728_2
p1252
aI3
ag15
(S'\x07\xdf\n\x06'
p1253
tp1254
Rp1255
aV2teku0293
p1256
aI92599
aI68252
aI01
aF9599.0
aF9797.0
aF24307.0
aF14367.0
aF6533.0
aF2844.0
aF6688.0
aF5788.0
aF5346.0
aF7330.0
ag1252
aI3
ag1255
aV2teku0294
p1257
aI72261
aI45371
aI01
aF13366.0
aF1778.0
aF22422.0
aF20853.0
aF0.0
aF4389.0
aF9.0
aF0.0
aF2717.0
aF6727.0
ag1252
aI3
ag1255
aV2teku0295
p1258
aI105756
aI74364
aI01
aF0.0
aF14885.0
aF22706.0
aF13692.0
aF3387.0
aF2644.0
aF0.0
aF28803.0
aF12258.0
aF7381.0
aV\u3055\u3070\u305a\u3057
p1259
aI3
ag15
(S'\x07\xdf\n\x06'
p1260
tp1261
Rp1262
aV2teku0296
p1263
aI37338
aI25064
aNaF3414.0
aF4191.0
aF2596.0
aF3398.0
aF6095.0
aF1219.0
aF5407.0
aF4601.0
aF2209.0
aF4208.0
ag1259
aI3
ag1262
aV2teku0297
p1264
aI0
aI0
aNaF0.0
aF0.0
aF0.0
aF0.0
aF0.0
aF0.0
aF0.0
aF0.0
aF0.0
aF0.0
ag1259
aI3
ag1262
aV2teku0298
p1265
aI0
aI0
aNaF0.0
aF0.0
aF0.0
aF0.0
aF0.0
aF0.0
aF0.0
aF0.0
aF0.0
aF0.0
aV\u3084\u308b\u305e
p1266
aI1
ag15
(S'\x07\xdf\n\x06'
p1267
tp1268
Rp1269
aV2teku0299
p1270
aI0
aI0
aNaF0.0
aF0.0
aF0.0
aF0.0
aF0.0
aF0.0
aF0.0
aF0.0
aF0.0
aF0.0
aVTeam MKP
p1271
aI3
ag15
(S'\x07\xdf\n\x06'
p1272
tp1273
Rp1274
aV2teku0300
p1275
aI36528
aI64228
aNaF4157.0
aF6565.0
aF5957.0
aF2904.0
aF3607.0
aF160.0
aF3532.0
aF2582.0
aF1602.0
aF5462.0
ag1271
aI3
ag1274
aV2teku0301
p1276
aI36672
aI26150
aNaF2896.0
aF6871.0
aF5349.0
aF6234.0
aF4477.0
aF664.0
aF13.0
aF262.0
aF4459.0
aF5447.0
ag1271
aI3
ag1274
aV2teku0302
p1277
aI64041
aI35327
aNaF11538.0
aF9115.0
aF8792.0
aF9613.0
aF1084.0
aF7909.0
aF619.0
aF7442.0
aF4249.0
aF3680.0
aV\u30c1\u30fc\u30e0\u6e6f\u7530\u5c0f \u897f\u30b6\u30c3\u30d7
p1278
aI3
ag15
(S'\x07\xdf\n\x06'
p1279
tp1280
Rp1281
aV2teku0303
p1282
aI0
aI0
aNaF0.0
aF0.0
aF0.0
aF0.0
aF0.0
aF0.0
aF0.0
aF0.0
aF0.0
aF0.0
ag1278
aI3
ag1281
aV2teku0304
p1283
aI0
aI0
aNaF0.0
aF0.0
aF0.0
aF0.0
aF0.0
aF0.0
aF0.0
aF0.0
aF0.0
aF0.0
ag1278
aI3
ag1281
aV2teku0305
p1284
aI0
aI0
aNaF0.0
aF0.0
aF0.0
aF0.0
aF0.0
aF0.0
aF0.0
aF0.0
aF0.0
aF0.0
aV\u30ca\u30e0
p1285
aI1
ag15
(S'\x07\xdf\n\x06'
p1286
tp1287
Rp1288
aV2teku0306
p1289
aI0
aI0
aNaF0.0
aF0.0
aF0.0
aF0.0
aF0.0
aF0.0
aF0.0
aF0.0
aF0.0
aF0.0
aV\u7537\uff13\u4eba\u7d44_2
p1290
aI3
ag15
(S'\x07\xdf\n\x06'
p1291
tp1292
Rp1293
aV2teku0307
p1294
aI0
aI0
aNaF0.0
aF0.0
aF0.0
aF0.0
aF0.0
aF0.0
aF0.0
aF0.0
aF0.0
aF0.0
ag1290
aI3
ag1293
aV2teku0308
p1295
aI0
aI0
aNaF0.0
aF0.0
aF0.0
aF0.0
aF0.0
aF0.0
aF0.0
aF0.0
aF0.0
aF0.0
ag1290
aI3
ag1293
aV2teku0309
p1296
aI0
aI0
aNaF0.0
aF0.0
aF0.0
aF0.0
aF0.0
aF0.0
aF0.0
aF0.0
aF0.0
aF0.0
aV\u30a2\u30ad
p1297
aI1
ag15
(S'\x07\xdf\n\x06'
p1298
tp1299
Rp1300
aV2teku0310
p1301
aI0
aI0
aNaF0.0
aF0.0
aF0.0
aF0.0
aF0.0
aF0.0
aF0.0
aF0.0
aF0.0
aF0.0
aV\uff11B
p1302
aI1
ag15
(S'\x07\xdf\n\x06'
p1303
tp1304
Rp1305
aV2teku0311
p1306
aI3319
aI2066
aI00
aF860.0
aF997.0
aF1191.0
aF271.0
aF0.0
aF0.0
aF0.0
aF0.0
aF0.0
aF0.0
aV\u5317\u5ddd\u5bb6_2
p1307
aI1
ag15
(S'\x07\xdf\n\x06'
p1308
tp1309
Rp1310
aV2teku0312
p1311
aI0
aI0
aNaF0.0
aF0.0
aF0.0
aF0.0
aF0.0
aF0.0
aF0.0
aF0.0
aF0.0
aF0.0
aV\u697d\u3057\u307f\u306a\u304c\u3089\u6b69\u304f\u4eba
p1312
aI1
ag15
(S'\x07\xdf\n\x06'
p1313
tp1314
Rp1315
aV2teku0313
p1316
aI114243
aI95390
aI01
aF11861.0
aF11999.0
aF11576.0
aF11071.0
aF12075.0
aF12062.0
aF6319.0
aF14857.0
aF10774.0
aF11649.0
aV\u3042\u3044\u3059\uff13\u500b\u76ee
p1317
aI3
ag15
(S'\x07\xdf\n\x06'
p1318
tp1319
Rp1320
aV2teku0314
p1321
aI85339
aI60021
aNaF10967.0
aF15101.0
aF11363.0
aF4326.0
aF12874.0
aF8166.0
aF1213.0
aF4484.0
aF10129.0
aF6716.0
ag1317
aI3
ag1320
aV2teku0315
p1322
aI0
aI0
aNaF0.0
aF0.0
aF0.0
aF0.0
aF0.0
aF0.0
aF0.0
aF0.0
aF0.0
aF0.0
ag1317
aI3
ag1320
aV2teku0316
p1323
aI115914
aI84469
aNaF9650.0
aF8233.0
aF7664.0
aF17693.0
aF7863.0
aF7394.0
aF11690.0
aF20563.0
aF10667.0
aF14497.0
aV\u3072\u307e\u308f\u308a\u7d44
p1324
aI5
ag15
(S'\x07\xdf\n\x06'
p1325
tp1326
Rp1327
aV2teku0317
p1328
aI63573
aI49037
aI01
aF11850.0
aF14703.0
aF5842.0
aF5939.0
aF9409.0
aF1665.0
aF4853.0
aF5232.0
aF1854.0
aF2226.0
ag1324
aI5
ag1327
aV2teku0318
p1329
aI107756
aI105995
aI01
aF13110.0
aF9060.0
aF16956.0
aF2552.0
aF3590.0
aF11821.0
aF8818.0
aF13161.0
aF21408.0
aF7280.0
ag1324
aI5
ag1327
aV2teku0319
p1330
aI136673
aI104800
aI01
aF13968.0
aF12523.0
aF14343.0
aF5267.0
aF18695.0
aF7047.0
aF18896.0
aF14611.0
aF16141.0
aF15182.0
ag1324
aI5
ag1327
aV2teku0320
p1331
aI163734
aI136121
aI01
aF21358.0
aF18578.0
aF22733.0
aF21245.0
aF8607.0
aF21257.0
aF15932.0
aF17441.0
aF4206.0
aF12377.0
ag1324
aI5
ag1327
aV2teku0321
p1332
aI207606
aI166068
aI01
aF35416.0
aF27162.0
aF20206.0
aF26533.0
aF15896.0
aF12655.0
aF13824.0
aF23798.0
aF9968.0
aF22148.0
aV\u3075\u304f\u3075\u304f
p1333
aI3
ag15
(S'\x07\xdf\n\x06'
p1334
tp1335
Rp1336
aV2teku0322
p1337
aI0
aI0
aNaF0.0
aF0.0
aF0.0
aF0.0
aF0.0
aF0.0
aF0.0
aF0.0
aF0.0
aF0.0
ag1333
aI3
ag1336
aV2teku0323
p1338
aI79778
aI61469
aNaF7510.0
aF9826.0
aF10563.0
aF10304.0
aF9216.0
aF5870.0
aF7594.0
aF5713.0
aF5991.0
aF7191.0
ag1333
aI3
ag1336
aV2teku0324
p1339
aI141962
aI101974
aNaF13567.0
aF12594.0
aF16861.0
aF13601.0
aF16001.0
aF11748.0
aF18063.0
aF4541.0
aF23060.0
aF11926.0
aV\u307e\u30b5\u30eb\u3055\u3093\u305d\u306e\uff11_2
p1340
aI3
ag15
(S'\x07\xdf\n\x06'
p1341
tp1342
Rp1343
aV2teku0325
p1344
aI71267
aI56272
aNaF1825.0
aF926.0
aF834.0
aF957.0
aF2308.0
aF2355.0
aF9754.0
aF7418.0
aF18400.0
aF26490.0
ag1340
aI3
ag1343
aV2teku0326
p1345
aI37606
aI28875
aNaF4797.0
aF544.0
aF3974.0
aF1206.0
aF4436.0
aF5714.0
aF4777.0
aF4279.0
aF4284.0
aF3595.0
ag1340
aI3
ag1343
aV2teku0327
p1346
aI53694
aI39807
aNaF3859.0
aF5145.0
aF3576.0
aF2617.0
aF6304.0
aF5394.0
aF4310.0
aF4803.0
aF7121.0
aF10565.0
aV\u307e\u30b5\u30eb\u3055\u3093\u305d\u306e\uff12_2
p1347
aI3
ag15
(S'\x07\xdf\n\x06'
p1348
tp1349
Rp1350
aV2teku0328
p1351
aI44921
aI33723
aNaF4763.0
aF3471.0
aF3419.0
aF1851.0
aF5443.0
aF3035.0
aF10085.0
aF3328.0
aF3486.0
aF6040.0
ag1347
aI3
ag1350
aV2teku0329
p1352
aI78414
aI62703
aNaF6522.0
aF3138.0
aF20000.0
aF6036.0
aF5336.0
aF6480.0
aF5075.0
aF7996.0
aF8827.0
aF9004.0
ag1347
aI3
ag1350
aV2teku0330
p1353
aI68409
aI46625
aNaF7937.0
aF6687.0
aF7512.0
aF3083.0
aF7087.0
aF4001.0
aF10171.0
aF7871.0
aF7752.0
aF6308.0
aV\u5d50\u30d1\u30fc\u30c8\uff12
p1354
aI3
ag15
(S'\x07\xdf\n\x06'
p1355
tp1356
Rp1357
aV2teku0331
p1358
aI0
aI0
aI00
aF0.0
aF0.0
aF0.0
aF0.0
aF0.0
aF0.0
aF0.0
aF0.0
aF0.0
aF0.0
ag1354
aI3
ag1357
aV2teku0332
p1359
aI0
aI0
aI00
aF0.0
aF0.0
aF0.0
aF0.0
aF0.0
aF0.0
aF0.0
aF0.0
aF0.0
aF0.0
ag1354
aI3
ag1357
aV2teku0333
p1360
aI0
aI0
aI00
aF0.0
aF0.0
aF0.0
aF0.0
aF0.0
aF0.0
aF0.0
aF0.0
aF0.0
aF0.0
aV\u30c1\u30fc\u30e0\u68ee
p1361
aI3
ag15
(S'\x07\xdf\n\x06'
p1362
tp1363
Rp1364
aV2teku0334
p1365
aI87914
aI64050
aNaF6217.0
aF10982.0
aF3891.0
aF10443.0
aF10979.0
aF14980.0
aF14076.0
aF4447.0
aF7814.0
aF4085.0
ag1361
aI3
ag1364
aV2teku0335
p1366
aI0
aI0
aNaF0.0
aF0.0
aF0.0
aF0.0
aF0.0
aF0.0
aF0.0
aF0.0
aF0.0
aF0.0
ag1361
aI3
ag1364
aV2teku0336
p1367
aI49067
aI36517
aNaF3045.0
aF3968.0
aF7822.0
aF3481.0
aF7740.0
aF9761.0
aF5176.0
aF4367.0
aF2878.0
aF829.0
aV\u30e4\u30de\u30ec\u30a4
p1368
aI3
ag15
(S'\x07\xdf\n\x06'
p1369
tp1370
Rp1371
aV2teku0337
p1372
aI44904
aI41727
aNaF2852.0
aF3399.0
aF155.0
aF0.0
aF5568.0
aF6890.0
aF23452.0
aF0.0
aF2588.0
aF0.0
ag1368
aI3
ag1371
aV2teku0338
p1373
aI48612
aI49519
aNaF3392.0
aF4217.0
aF1969.0
aF1752.0
aF6710.0
aF4266.0
aF23640.0
aF0.0
aF2666.0
aF0.0
ag1368
aI3
ag1371
aV2teku0339
p1374
aI54232
aI46609
aNaF3814.0
aF3320.0
aF3502.0
aF2620.0
aF5713.0
aF10631.0
aF10536.0
aF3493.0
aF6443.0
aF4160.0
aV\u30bf\u30c3\u30c1\u30e3\u30f3
p1375
aI1
ag15
(S'\x07\xdf\n\x06'
p1376
tp1377
Rp1378
aV2teku0340
p1379
aI0
aI0
aNaF0.0
aF0.0
aF0.0
aF0.0
aF0.0
aF0.0
aF0.0
aF0.0
aF0.0
aF0.0
aV\u3075\u3068\u307e\u3063\u304b
p1380
aI5
ag15
(S'\x07\xdf\n\x06'
p1381
tp1382
Rp1383
aV2teku0341
p1384
aI92858
aI69083
aNaF10004.0
aF10010.0
aF8938.0
aF6862.0
aF11401.0
aF10519.0
aF15662.0
aF9085.0
aF10377.0
aF0.0
ag1380
aI5
ag1383
aV2teku0342
p1385
aI34937
aI24632
aNaF836.0
aF1520.0
aF1158.0
aF9191.0
aF4622.0
aF6457.0
aF7603.0
aF982.0
aF848.0
aF1720.0
ag1380
aI5
ag1383
aV2teku0343
p1386
aI39912
aI29613
aNaF1434.0
aF2060.0
aF4613.0
aF8684.0
aF7942.0
aF1829.0
aF1760.0
aF522.0
aF9881.0
aF1187.0
ag1380
aI5
ag1383
aV2teku0344
p1387
aI87338
aI72829
aNaF4862.0
aF3825.0
aF9675.0
aF9454.0
aF16734.0
aF7685.0
aF13039.0
aF5110.0
aF12296.0
aF4658.0
ag1380
aI5
ag1383
aV2teku0345
p1388
aI0
aI0
aNaF0.0
aF0.0
aF0.0
aF0.0
aF0.0
aF0.0
aF0.0
aF0.0
aF0.0
aF0.0
aV\u3070\u3093\u3061\u3083\u3093
p1389
aI1
ag15
(S'\x07\xdf\n\x06'
p1390
tp1391
Rp1392
aV2teku0346
p1393
aI56063
aI49572
aNaF6277.0
aF2539.0
aF9840.0
aF11168.0
aF3561.0
aF2286.0
aF7015.0
aF6940.0
aF3247.0
aF3190.0
aV\uff33\uff26\u30b9\u30fc\u30d1\u30fc
p1394
aI1
ag15
(S'\x07\xdf\n\x06'
p1395
tp1396
Rp1397
aV2teku0347
p1398
aI0
aI0
aNaF0.0
aF0.0
aF0.0
aF0.0
aF0.0
aF0.0
aF0.0
aF0.0
aF0.0
aF0.0
aV\u306f\u308b\u307f
p1399
aI1
ag15
(S'\x07\xdf\n\x06'
p1400
tp1401
Rp1402
aV2teku0348
p1403
aI0
aI0
aI00
aF0.0
aF0.0
aF0.0
aF0.0
aF0.0
aF0.0
aF0.0
aF0.0
aF0.0
aF0.0
aV\u82e5\u6c50\u4e38
p1404
aI1
ag15
(S'\x07\xdf\n\x06'
p1405
tp1406
Rp1407
aV2teku0349
p1408
aI124909
aI81117
aI01
aF15541.0
aF13097.0
aF18663.0
aF13700.0
aF13249.0
aF14201.0
aF13139.0
aF5698.0
aF10936.0
aF6685.0
aV\u3055\u3064\u307e\u3044\u3082
p1409
aI5
ag15
(S'\x07\xdf\n\x06'
p1410
tp1411
Rp1412
aV2teku0350
p1413
aI96379
aI78688
aI01
aF6629.0
aF10252.0
aF12113.0
aF8265.0
aF12269.0
aF4761.0
aF5562.0
aF4509.0
aF4207.0
aF27812.0
ag1409
aI5
ag1412
aV2teku0351
p1414
aI73761
aI62319
aI01
aF3869.0
aF6892.0
aF10299.0
aF7247.0
aF8524.0
aF1759.0
aF9706.0
aF15442.0
aF2999.0
aF7024.0
ag1409
aI5
ag1412
aV2teku0352
p1415
aI122536
aI87355
aI01
aF28988.0
aF13498.0
aF4581.0
aF16144.0
aF9641.0
aF12135.0
aF5678.0
aF10347.0
aF11538.0
aF9986.0
ag1409
aI5
ag1412
aV2teku0353
p1416
aI53133
aI48588
aI01
aF8654.0
aF5337.0
aF8780.0
aF5640.0
aF880.0
aF6902.0
aF7095.0
aF1100.0
aF7888.0
aF857.0
ag1409
aI5
ag1412
aV2teku0354
p1417
aI92908
aI71964
aI01
aF507.0
aF20119.0
aF27605.0
aF2575.0
aF1007.0
aF11894.0
aF21869.0
aF4338.0
aF1037.0
aF1957.0
aV\u30c1\u30fc\u30e0\u91d1\u592a\u90ce
p1418
aI5
ag15
(S'\x07\xdf\n\x06'
p1419
tp1420
Rp1421
aV2teku0355
p1422
aI42645
aI28742
aNaF3889.0
aF4632.0
aF3350.0
aF4548.0
aF8071.0
aF5035.0
aF5811.0
aF4210.0
aF2038.0
aF1061.0
ag1418
aI5
ag1421
aV2teku0356
p1423
aI90248
aI69269
aNaF11390.0
aF8198.0
aF8353.0
aF10410.0
aF7257.0
aF10360.0
aF8025.0
aF7874.0
aF6681.0
aF11700.0
ag1418
aI5
ag1421
aV2teku0357
p1424
aI0
aI0
aNaF0.0
aF0.0
aF0.0
aF0.0
aF0.0
aF0.0
aF0.0
aF0.0
aF0.0
aF0.0
ag1418
aI5
ag1421
aV2teku0358
p1425
aI0
aI0
aNaF0.0
aF0.0
aF0.0
aF0.0
aF0.0
aF0.0
aF0.0
aF0.0
aF0.0
aF0.0
ag1418
aI5
ag1421
aV2teku0359
p1426
aI0
aI0
aNaF0.0
aF0.0
aF0.0
aF0.0
aF0.0
aF0.0
aF0.0
aF0.0
aF0.0
aF0.0
aV\u30b3\u30de\u30c1
p1427
aI1
ag15
(S'\x07\xdf\n\x06'
p1428
tp1429
Rp1430
aV2teku0360
p1431
aI0
aI0
aNaF0.0
aF0.0
aF0.0
aF0.0
aF0.0
aF0.0
aF0.0
aF0.0
aF0.0
aF0.0
aV\u934b\u592a\u90ce
p1432
aI5
ag15
(S'\x07\xdf\n\x06'
p1433
tp1434
Rp1435
aV2teku0361
p1436
aI76014
aI59116
aNaF9930.0
aF12127.0
aF7604.0
aF5261.0
aF4091.0
aF1292.0
aF11820.0
aF15645.0
aF1466.0
aF6778.0
ag1432
aI5
ag1435
aV2teku0362
p1437
aI57341
aI43558
aNaF8036.0
aF9259.0
aF9286.0
aF6634.0
aF3600.0
aF3146.0
aF3937.0
aF7314.0
aF402.0
aF5727.0
ag1432
aI5
ag1435
aV2teku0363
p1438
aI57336
aI42633
aNaF6333.0
aF3760.0
aF12495.0
aF2462.0
aF10914.0
aF8805.0
aF3699.0
aF1907.0
aF4112.0
aF2849.0
ag1432
aI5
ag1435
aV2teku0364
p1439
aI76228
aI55960
aNaF7380.0
aF7937.0
aF5538.0
aF7528.0
aF9217.0
aF7826.0
aF5981.0
aF7721.0
aF11100.0
aF6000.0
ag1432
aI5
ag1435
aV2teku0365
p1440
aI58648
aI49624
aNaF8497.0
aF1778.0
aF8765.0
aF4023.0
aF3737.0
aF4181.0
aF4488.0
aF3638.0
aF9028.0
aF10513.0
aV\u307e\u3044\u307a\u30fc\u3059
p1441
aI5
ag15
(S'\x07\xdf\n\x06'
p1442
tp1443
Rp1444
aV2teku0366
p1445
aI67018
aI46762
aNaF7686.0
aF9384.0
aF5753.0
aF7466.0
aF6147.0
aF5526.0
aF10521.0
aF6022.0
aF4943.0
aF3570.0
ag1441
aI5
ag1444
aV2teku0367
p1446
aI62839
aI46972
aNaF8351.0
aF6962.0
aF5167.0
aF6445.0
aF4596.0
aF4484.0
aF6724.0
aF7390.0
aF5106.0
aF7614.0
ag1441
aI5
ag1444
aV2teku0368
p1447
aI45777
aI33241
aNaF0.0
aF6834.0
aF4990.0
aF4959.0
aF4591.0
aF5644.0
aF7549.0
aF6047.0
aF5163.0
aF0.0
ag1441
aI5
ag1444
aV2teku0369
p1448
aI26946
aI19212
aNaF3511.0
aF3140.0
aF902.0
aF304.0
aF4282.0
aF890.0
aF9730.0
aF782.0
aF3193.0
aF212.0
ag1441
aI5
ag1444
aV2teku0370
p1449
aI20276
aI15954
aNaF2161.0
aF2000.0
aF405.0
aF2031.0
aF83.0
aF471.0
aF273.0
aF2645.0
aF4658.0
aF5549.0
aV\uff2b\uff29\uff2e\uff27\uff16\uff45\uff52\uff53
p1450
aI5
ag15
(S'\x07\xdf\n\x06'
p1451
tp1452
Rp1453
aV2teku0371
p1454
aI74583
aI60709
aI01
aF6234.0
aF9394.0
aF6718.0
aF6053.0
aF7571.0
aF7031.0
aF7947.0
aF9087.0
aF1923.0
aF12625.0
ag1450
aI5
ag1453
aV2teku0372
p1455
aI63150
aI44771
aI01
aF10056.0
aF6221.0
aF4721.0
aF4958.0
aF7038.0
aF6223.0
aF6390.0
aF7461.0
aF4512.0
aF5570.0
ag1450
aI5
ag1453
aV2teku0373
p1456
aI62271
aI39608
aI01
aF7553.0
aF10702.0
aF4590.0
aF3818.0
aF6246.0
aF1493.0
aF9186.0
aF4257.0
aF8100.0
aF6326.0
ag1450
aI5
ag1453
aV2teku0374
p1457
aI103228
aI84518
aI01
aF10530.0
aF9655.0
aF7822.0
aF13674.0
aF7735.0
aF17698.0
aF10069.0
aF7894.0
aF11507.0
aF6644.0
ag1450
aI5
ag1453
aV2teku0375
p1458
aI68408
aI55978
aI01
aF4847.0
aF4906.0
aF9517.0
aF5792.0
aF13911.0
aF9351.0
aF917.0
aF4578.0
aF6184.0
aF8405.0
aV\u30bf\u30a4\u30ac\u30fc\u30b9_2
p1459
aI1
ag15
(S'\x07\xdf\n\x06'
p1460
tp1461
Rp1462
aV2teku0376
p1463
aI0
aI0
aNaF0.0
aF0.0
aF0.0
aF0.0
aF0.0
aF0.0
aF0.0
aF0.0
aF0.0
aF0.0
aVtoday
p1464
aI1
ag15
(S'\x07\xdf\n\x06'
p1465
tp1466
Rp1467
aV2teku0377
p1468
aI104249
aI87079
aI01
aF9075.0
aF10131.0
aF9284.0
aF10329.0
aF13006.0
aF10612.0
aF12072.0
aF8985.0
aF10931.0
aF9824.0
aV\u30b9\u30d0\u30eb
p1469
aI1
ag15
(S'\x07\xdf\n\x06'
p1470
tp1471
Rp1472
aV2teku0378
p1473
aI0
aI0
aNaF0.0
aF0.0
aF0.0
aF0.0
aF0.0
aF0.0
aF0.0
aF0.0
aF0.0
aF0.0
aV\u30d6\u30c1
p1474
aI1
ag15
(S'\x07\xdf\n\x06'
p1475
tp1476
Rp1477
aV2teku0379
p1478
aI98850
aI102025
aI01
aF9100.0
aF12150.0
aF2259.0
aF2487.0
aF20537.0
aF12410.0
aF20105.0
aF9086.0
aF10716.0
aF0.0
aV\u30c1\u30fc\u30e0\u307d\u3093\u307d\u3053\u30dd\u30f3
p1479
aI3
ag15
(S'\x07\xdf\n\x06'
p1480
tp1481
Rp1482
aV2teku0380
p1483
aI123377
aI90428
aI01
aF15502.0
aF8668.0
aF14451.0
aF5648.0
aF17280.0
aF17602.0
aF10470.0
aF9111.0
aF11887.0
aF12758.0
ag1479
aI3
ag1482
aV2teku0381
p1484
aI92177
aI66836
aI01
aF9894.0
aF12014.0
aF11068.0
aF9312.0
aF7601.0
aF7870.0
aF6676.0
aF4142.0
aF9799.0
aF13801.0
ag1479
aI3
ag1482
aV2teku0382
p1485
aI95644
aI112506
aI01
aF14548.0
aF11033.0
aF9571.0
aF11497.0
aF7030.0
aF11158.0
aF5295.0
aF9344.0
aF8158.0
aF8010.0
aV\u30d1\u30fc\u5b50\u2019S
p1486
aI5
ag15
(S'\x07\xdf\n\x06'
p1487
tp1488
Rp1489
aV2teku0383
p1490
aI99495
aI80611
aI01
aF10433.0
aF8531.0
aF11704.0
aF10539.0
aF14217.0
aF5066.0
aF9961.0
aF10652.0
aF14576.0
aF3816.0
ag1486
aI5
ag1489
aV2teku0384
p1491
aI118521
aI89509
aI01
aF14184.0
aF14762.0
aF13588.0
aF5726.0
aF11144.0
aF14226.0
aF4692.0
aF16364.0
aF11358.0
aF12477.0
ag1486
aI5
ag1489
aV2teku0385
p1492
aI99296
aI77034
aI01
aF10898.0
aF14318.0
aF10589.0
aF13226.0
aF4094.0
aF13172.0
aF6785.0
aF12216.0
aF8958.0
aF5040.0
ag1486
aI5
ag1489
aV2teku0386
p1493
aI123332
aI111927
aI01
aF13480.0
aF12531.0
aF17428.0
aF15706.0
aF14270.0
aF9661.0
aF2811.0
aF15430.0
aF12660.0
aF9355.0
ag1486
aI5
ag1489
aV2teku0387
p1494
aI62792
aI52970
aI01
aF7992.0
aF4854.0
aF12492.0
aF3935.0
aF12728.0
aF4745.0
aF1710.0
aF7181.0
aF4502.0
aF2653.0
aVK\uff0eK
p1495
aI1
ag15
(S'\x07\xdf\n\x06'
p1496
tp1497
Rp1498
aV2teku0388
p1499
aI0
aI0
aNaF0.0
aF0.0
aF0.0
aF0.0
aF0.0
aF0.0
aF0.0
aF0.0
aF0.0
aF0.0
aV\u307d\u3093\u305f_3
p1500
aI3
ag15
(S'\x07\xdf\x0b\x01'
p1501
tp1502
Rp1503
aV3teku0000
p1504
aI116845
aI94910
aI01
aF8573.0
aF9969.0
aF12305.0
aF11397.0
aF12397.0
aF13959.0
aF6046.0
aF21941.0
aF8321.0
aF11937.0
ag1500
aI3
ag1503
aV3teku0001
p1505
aI126932
aI86666
aI01
aF9444.0
aF11209.0
aF6879.0
aF20418.0
aF26546.0
aF11544.0
aF11456.0
aF10004.0
aF15398.0
aF4034.0
ag1500
aI3
ag1503
aV3teku0002
p1506
aI64253
aI61805
aI01
aF4157.0
aF2938.0
aF7764.0
aF7446.0
aF8389.0
aF6086.0
aF9380.0
aF8279.0
aF3056.0
aF6758.0
aV\u306f\u308b\u3061\u3083\u3093
p1507
aI1
ag15
(S'\x07\xdf\x0b\x01'
p1508
tp1509
Rp1510
aV3teku0003
p1511
aI142855
aI147599
aI01
aF24285.0
aF5475.0
aF22194.0
aF16175.0
aF9731.0
aF7316.0
aF30379.0
aF12988.0
aF7992.0
aF6320.0
aV\u30ab\u30c3\u30d1\u3055\u3093_3
p1512
aI1
ag15
(S'\x07\xdf\x0b\x01'
p1513
tp1514
Rp1515
aV3teku0004
p1516
aI0
aI0
aNaF0.0
aF0.0
aF0.0
aF0.0
aF0.0
aF0.0
aF0.0
aF0.0
aF0.0
aF0.0
aV\u30ad\u30e9\u30e9
p1517
aI3
ag15
(S'\x07\xdf\x0b\x01'
p1518
tp1519
Rp1520
aV3teku0005
p1521
aI77756
aI57775
aNaF8235.0
aF5302.0
aF12988.0
aF6393.0
aF6200.0
aF5198.0
aF6962.0
aF20475.0
aF1871.0
aF4132.0
ag1517
aI3
ag1520
aV3teku0006
p1522
aI49364
aI35098
aNaF4909.0
aF6489.0
aF9889.0
aF8588.0
aF3926.0
aF1195.0
aF3076.0
aF1882.0
aF6491.0
aF2919.0
ag1517
aI3
ag1520
aV3teku0007
p1523
aI82500
aI53776
aNaF7253.0
aF7462.0
aF7200.0
aF7271.0
aF5483.0
aF10927.0
aF6034.0
aF18087.0
aF6397.0
aF6386.0
aV\u30c6\u30cb\u30b9\u3063\u3053\u304f\u3089\u3076_3
p1524
aI5
ag15
(S'\x07\xdf\x0b\x01'
p1525
tp1526
Rp1527
aV3teku0008
p1528
aI227801
aI183808
aI01
aF18801.0
aF12806.0
aF19960.0
aF15226.0
aF13806.0
aF16627.0
aF39719.0
aF38864.0
aF18850.0
aF33142.0
ag1524
aI5
ag1527
aV3teku0009
p1529
aI98090
aI93518
aI01
aF12309.0
aF5704.0
aF12942.0
aF12666.0
aF10763.0
aF5497.0
aF5284.0
aF17686.0
aF7094.0
aF8145.0
ag1524
aI5
ag1527
aV3teku0010
p1530
aI288830
aI249828
aI01
aF26705.0
aF29220.0
aF20922.0
aF24380.0
aF26219.0
aF27070.0
aF31423.0
aF41218.0
aF30268.0
aF31405.0
ag1524
aI5
ag1527
aV3teku0011
p1531
aI148276
aI89211
aI01
aF7289.0
aF15421.0
aF12009.0
aF8226.0
aF25644.0
aF13924.0
aF15906.0
aF33335.0
aF8726.0
aF7796.0
ag1524
aI5
ag1527
aV3teku0012
p1532
aI205784
aI179228
aI01
aF22208.0
aF13728.0
aF18529.0
aF20177.0
aF20200.0
aF16095.0
aF19181.0
aF23905.0
aF18715.0
aF33046.0
aV\uff32\uff25\u3061\u3083\u3093_3
p1533
aI1
ag15
(S'\x07\xdf\x0b\x01'
p1534
tp1535
Rp1536
aV3teku0013
p1537
aI118419
aI94903
aI01
aF9209.0
aF9347.0
aF9621.0
aF4320.0
aF4326.0
aF15161.0
aF8016.0
aF18576.0
aF24705.0
aF15138.0
aV\u307b\u3063\u3061\u3083\u3093_3
p1538
aI5
ag15
(S'\x07\xdf\x0b\x01'
p1539
tp1540
Rp1541
aV3teku0014
p1542
aI0
aI0
aNaF0.0
aF0.0
aF0.0
aF0.0
aF0.0
aF0.0
aF0.0
aF0.0
aF0.0
aF0.0
ag1538
aI5
ag1541
aV3teku0015
p1543
aI0
aI0
aNaF0.0
aF0.0
aF0.0
aF0.0
aF0.0
aF0.0
aF0.0
aF0.0
aF0.0
aF0.0
ag1538
aI5
ag1541
aV3teku0016
p1544
aI0
aI0
aNaF0.0
aF0.0
aF0.0
aF0.0
aF0.0
aF0.0
aF0.0
aF0.0
aF0.0
aF0.0
ag1538
aI5
ag1541
aV3teku0017
p1545
aI0
aI0
aNaF0.0
aF0.0
aF0.0
aF0.0
aF0.0
aF0.0
aF0.0
aF0.0
aF0.0
aF0.0
ag1538
aI5
ag1541
aV3teku0018
p1546
aI0
aI0
aNaF0.0
aF0.0
aF0.0
aF0.0
aF0.0
aF0.0
aF0.0
aF0.0
aF0.0
aF0.0
aV\uff2e\uff2f\uff32\uff2f\uff37\u9577\u6d5c
p1547
aI5
ag15
(S'\x07\xdf\x0b\x01'
p1548
tp1549
Rp1550
aV3teku0019
p1551
aI276030
aI204320
aI01
aF39061.0
aF30426.0
aF31641.0
aF28225.0
aF28888.0
aF38840.0
aF19915.0
aF14864.0
aF29922.0
aF14248.0
ag1547
aI5
ag1550
aV3teku0020
p1552
aI158611
aI131118
aI01
aF17805.0
aF18214.0
aF25567.0
aF7997.0
aF20445.0
aF8988.0
aF27201.0
aF13882.0
aF11371.0
aF7141.0
ag1547
aI5
ag1550
aV3teku0021
p1553
aI157479
aI130132
aI01
aF19541.0
aF18703.0
aF19880.0
aF7175.0
aF15297.0
aF11332.0
aF22678.0
aF16852.0
aF11921.0
aF14100.0
ag1547
aI5
ag1550
aV3teku0022
p1554
aI89321
aI64115
aI01
aF8257.0
aF11921.0
aF23331.0
aF986.0
aF7019.0
aF7051.0
aF23087.0
aF737.0
aF4424.0
aF2508.0
ag1547
aI5
ag1550
aV3teku0023
p1555
aI169603
aI127091
aI01
aF15174.0
aF16731.0
aF9895.0
aF12672.0
aF13325.0
aF16716.0
aF34159.0
aF16437.0
aF7390.0
aF27104.0
aV\u864e\u3061\u3083\u3093_3
p1556
aI1
ag15
(S'\x07\xdf\x0b\x01'
p1557
tp1558
Rp1559
aV3teku0024
p1560
aI0
aI0
aNaF0.0
aF0.0
aF0.0
aF0.0
aF0.0
aF0.0
aF0.0
aF0.0
aF0.0
aF0.0
aV\u30c1\u30fc\u30e0\u304c\u3093\u3070\u308d\u3046\u4ecb\u8b77\u4e88\u9632\uff01
p1561
aI5
ag15
(S'\x07\xdf\x0b\x01'
p1562
tp1563
Rp1564
aV3teku0025
p1565
aI67202
aI49907
aNaF0.0
aF2771.0
aF15370.0
aF4964.0
aF14924.0
aF11406.0
aF6126.0
aF1604.0
aF6337.0
aF3700.0
ag1561
aI5
ag1564
aV3teku0026
p1566
aI0
aI0
aNaF0.0
aF0.0
aF0.0
aF0.0
aF0.0
aF0.0
aF0.0
aF0.0
aF0.0
aF0.0
ag1561
aI5
ag1564
aV3teku0027
p1567
aI52208
aI40977
aNaF17354.0
aF2265.0
aF6672.0
aF786.0
aF2045.0
aF983.0
aF15968.0
aF1496.0
aF3843.0
aF796.0
ag1561
aI5
ag1564
aV3teku0028
p1568
aI47941
aI37374
aNaF4170.0
aF2809.0
aF7536.0
aF3794.0
aF10574.0
aF2322.0
aF5661.0
aF3039.0
aF5764.0
aF2272.0
ag1561
aI5
ag1564
aV3teku0029
p1569
aI0
aI0
aNaF0.0
aF0.0
aF0.0
aF0.0
aF0.0
aF0.0
aF0.0
aF0.0
aF0.0
aF0.0
aV\u306a\u304c\u305f\u3093
p1570
aI5
ag15
(S'\x07\xdf\x0b\x01'
p1571
tp1572
Rp1573
aV3teku0030
p1574
aI0
aI0
aNaF0.0
aF0.0
aF0.0
aF0.0
aF0.0
aF0.0
aF0.0
aF0.0
aF0.0
aF0.0
ag1570
aI5
ag1573
aV3teku0031
p1575
aI0
aI0
aNaF0.0
aF0.0
aF0.0
aF0.0
aF0.0
aF0.0
aF0.0
aF0.0
aF0.0
aF0.0
ag1570
aI5
ag1573
aV3teku0032
p1576
aI0
aI0
aNaF0.0
aF0.0
aF0.0
aF0.0
aF0.0
aF0.0
aF0.0
aF0.0
aF0.0
aF0.0
ag1570
aI5
ag1573
aV3teku0033
p1577
aI0
aI0
aNaF0.0
aF0.0
aF0.0
aF0.0
aF0.0
aF0.0
aF0.0
aF0.0
aF0.0
aF0.0
ag1570
aI5
ag1573
aV3teku0034
p1578
aI0
aI0
aNaF0.0
aF0.0
aF0.0
aF0.0
aF0.0
aF0.0
aF0.0
aF0.0
aF0.0
aF0.0
aV\u5bae\u90e8\u30a6\u30a9\u30fc\u30ad\u30f3\u30b0\u30af\u30e9\u30d6_3
p1579
aI1
ag15
(S'\x07\xdf\x0b\x01'
p1580
tp1581
Rp1582
aV3teku0035
p1583
aI226721
aI199402
aI01
aF20468.0
aF33581.0
aF29817.0
aF23355.0
aF16690.0
aF15939.0
aF24374.0
aF19514.0
aF26858.0
aF16125.0
aVBlack fam\uff0e
p1584
aI3
ag15
(S'\x07\xdf\x0b\x01'
p1585
tp1586
Rp1587
aV3teku0036
p1588
aI50317
aI36545
aNaF7203.0
aF7441.0
aF7304.0
aF4867.0
aF6774.0
aF2110.0
aF8542.0
aF2494.0
aF1036.0
aF2546.0
ag1584
aI3
ag1587
aV3teku0037
p1589
aI0
aI0
aNaF0.0
aF0.0
aF0.0
aF0.0
aF0.0
aF0.0
aF0.0
aF0.0
aF0.0
aF0.0
ag1584
aI3
ag1587
aV3teku0038
p1590
aI0
aI0
aNaF0.0
aF0.0
aF0.0
aF0.0
aF0.0
aF0.0
aF0.0
aF0.0
aF0.0
aF0.0
aV\u30c1\u30fc\u30e0\u30fb\u30d5\u30b8\u30a4_3
p1591
aI5
ag15
(S'\x07\xdf\x0b\x01'
p1592
tp1593
Rp1594
aV3teku0039
p1595
aI96092
aI48142
aI01
aF1840.0
aF8523.0
aF11272.0
aF8930.0
aF15475.0
aF6636.0
aF9197.0
aF5227.0
aF20800.0
aF8192.0
ag1591
aI5
ag1594
aV3teku0040
p1596
aI109119
aI83813
aI01
aF13471.0
aF5705.0
aF18538.0
aF9367.0
aF11370.0
aF15167.0
aF17919.0
aF6449.0
aF8615.0
aF2518.0
ag1591
aI5
ag1594
aV3teku0041
p1597
aI62302
aI46121
aI01
aF6502.0
aF7531.0
aF7141.0
aF6637.0
aF6355.0
aF7317.0
aF4975.0
aF3235.0
aF5713.0
aF6896.0
ag1591
aI5
ag1594
aV3teku0454
p1598
aI44977
aI36543
aI01
aF0.0
aF2730.0
aF5396.0
aF6034.0
aF4370.0
aF7658.0
aF3672.0
aF4732.0
aF7395.0
aF2990.0
ag1591
aI5
ag1594
aV3teku0455
p1599
aI137444
aI92001
aI01
aF14685.0
aF13240.0
aF12675.0
aF13995.0
aF12261.0
aF12136.0
aF20062.0
aF15141.0
aF11019.0
aF12230.0
aV\u30cf\u30b8\u30e1_3
p1600
aI1
ag15
(S'\x07\xdf\x0b\x01'
p1601
tp1602
Rp1603
aV3teku0042
p1604
aI0
aI0
aNaF0.0
aF0.0
aF0.0
aF0.0
aF0.0
aF0.0
aF0.0
aF0.0
aF0.0
aF0.0
aV\u30d0\u30e0\u30fc_3
p1605
aI1
ag15
(S'\x07\xdf\x0b\x01'
p1606
tp1607
Rp1608
aV3teku0043
p1609
aI126117
aI93627
aI01
aF13420.0
aF18718.0
aF21196.0
aF20497.0
aF17040.0
aF11437.0
aF7748.0
aF1519.0
aF7437.0
aF7105.0
aV\u3086\u308b\u308a
p1610
aI5
ag15
(S'\x07\xdf\x0b\x01'
p1611
tp1612
Rp1613
aV3teku0044
p1614
aI36795
aI26338
aNaF3478.0
aF3883.0
aF7514.0
aF5186.0
aF4298.0
aF1792.0
aF1637.0
aF1973.0
aF1524.0
aF5510.0
ag1610
aI5
ag1613
aV3teku0045
p1615
aI62185
aI40095
aNaF8685.0
aF5864.0
aF13208.0
aF6405.0
aF2717.0
aF3584.0
aF9962.0
aF5764.0
aF3792.0
aF2204.0
ag1610
aI5
ag1613
aV3teku0046
p1616
aI117098
aI82854
aNaF3331.0
aF3052.0
aF11329.0
aF15474.0
aF10417.0
aF2349.0
aF54866.0
aF8284.0
aF5998.0
aF1998.0
ag1610
aI5
ag1613
aV3teku0047
p1617
aI0
aI0
aNaF0.0
aF0.0
aF0.0
aF0.0
aF0.0
aF0.0
aF0.0
aF0.0
aF0.0
aF0.0
ag1610
aI5
ag1613
aV3teku0048
p1618
aI59688
aI39739
aNaF10464.0
aF5215.0
aF11146.0
aF3572.0
aF4918.0
aF2717.0
aF6435.0
aF7495.0
aF4661.0
aF3065.0
aV\u30e9\u30d3\u30c3\u30c8
p1619
aI3
ag15
(S'\x07\xdf\x0b\x01'
p1620
tp1621
Rp1622
aV3teku0049
p1623
aI101895
aI71024
aI00
aF7206.0
aF7675.0
aF8118.0
aF11120.0
aF10422.0
aF11594.0
aF9461.0
aF8056.0
aF11674.0
aF16569.0
ag1619
aI3
ag1622
aV3teku0050
p1624
aI17072
aI12471
aI00
aF0.0
aF453.0
aF8838.0
aF77.0
aF0.0
aF545.0
aF139.0
aF545.0
aF835.0
aF5640.0
ag1619
aI3
ag1622
aV3teku0051
p1625
aI0
aI0
aI00
aF0.0
aF0.0
aF0.0
aF0.0
aF0.0
aF0.0
aF0.0
aF0.0
aF0.0
aF0.0
aV\u30c6\u30c4\u30b6\u30a8\u30eb \u30c8\u30e9\u30a4\u30d6
p1626
aI5
ag15
(S'\x07\xdf\x0b\x01'
p1627
tp1628
Rp1629
aV3teku0052
p1630
aI0
aI0
aNaF0.0
aF0.0
aF0.0
aF0.0
aF0.0
aF0.0
aF0.0
aF0.0
aF0.0
aF0.0
ag1626
aI5
ag1629
aV3teku0053
p1631
aI80018
aI63843
aNaF10663.0
aF7604.0
aF5459.0
aF12137.0
aF7854.0
aF9819.0
aF9535.0
aF4104.0
aF2756.0
aF10087.0
ag1626
aI5
ag1629
aV3teku0054
p1632
aI57852
aI40832
aNaF0.0
aF4313.0
aF7740.0
aF14675.0
aF3752.0
aF6070.0
aF3894.0
aF4782.0
aF8266.0
aF4360.0
ag1626
aI5
ag1629
aV3teku0055
p1633
aI76047
aI40247
aNaF0.0
aF3144.0
aF13636.0
aF18441.0
aF5981.0
aF6845.0
aF2671.0
aF9277.0
aF3063.0
aF12989.0
ag1626
aI5
ag1629
aV3teku0056
p1634
aI48940
aI34977
aNaF0.0
aF5448.0
aF0.0
aF100.0
aF4155.0
aF9454.0
aF10030.0
aF4365.0
aF6138.0
aF9250.0
aV\u3072\u305f\u3059\u3089\uff12_3
p1635
aI1
ag15
(S'\x07\xdf\x0b\x01'
p1636
tp1637
Rp1638
aV3teku0057
p1639
aI0
aI0
aI00
aF0.0
aF0.0
aF0.0
aF0.0
aF0.0
aF0.0
aF0.0
aF0.0
aF0.0
aF0.0
aV\u30c6\u30af\u30c6\u30af_3
p1640
aI1
ag15
(S'\x07\xdf\x0b\x01'
p1641
tp1642
Rp1643
aV3teku0058
p1644
aI0
aI0
aNaF0.0
aF0.0
aF0.0
aF0.0
aF0.0
aF0.0
aF0.0
aF0.0
aF0.0
aF0.0
aV\u304a\u5e02\uff13\u59c9\u59b9
p1645
aI3
ag15
(S'\x07\xdf\x0b\x01'
p1646
tp1647
Rp1648
aV3teku0059
p1649
aI0
aI0
aNaF0.0
aF0.0
aF0.0
aF0.0
aF0.0
aF0.0
aF0.0
aF0.0
aF0.0
aF0.0
ag1645
aI3
ag1648
aV3teku0060
p1650
aI44148
aI28539
aNaF3843.0
aF2501.0
aF3373.0
aF3679.0
aF2184.0
aF3413.0
aF4958.0
aF3967.0
aF4269.0
aF11961.0
ag1645
aI3
ag1648
aV3teku0061
p1651
aI54284
aI48985
aNaF2449.0
aF2708.0
aF5779.0
aF3083.0
aF4788.0
aF5928.0
aF7899.0
aF5252.0
aF10894.0
aF5504.0
aV\u3072\u30fc\u3055\u3093_3
p1652
aI1
ag15
(S'\x07\xdf\x0b\x01'
p1653
tp1654
Rp1655
aV3teku0062
p1656
aI106697
aI135732
aI01
aF10175.0
aF4526.0
aF12192.0
aF3257.0
aF5922.0
aF15552.0
aF17018.0
aF8662.0
aF15069.0
aF14324.0
aV\u6b69\u3051\u30e1\u30ed\u30b9
p1657
aI3
ag15
(S'\x07\xdf\x0b\x01'
p1658
tp1659
Rp1660
aV3teku0063
p1661
aI39056
aI25023
aNaF3433.0
aF2476.0
aF5069.0
aF3212.0
aF3882.0
aF4608.0
aF3770.0
aF6595.0
aF2240.0
aF3771.0
ag1657
aI3
ag1660
aV3teku0064
p1662
aI64472
aI44142
aNaF4350.0
aF9752.0
aF5834.0
aF8181.0
aF8236.0
aF123.0
aF1231.0
aF6747.0
aF11365.0
aF8653.0
ag1657
aI3
ag1660
aV3teku0065
p1663
aI82501
aI63257
aNaF10195.0
aF2476.0
aF12931.0
aF5354.0
aF2327.0
aF9570.0
aF6469.0
aF15942.0
aF13146.0
aF4091.0
aV\u30ef\u30eb\u30b5\u2015A50_3
p1664
aI5
ag15
(S'\x07\xdf\x0b\x01'
p1665
tp1666
Rp1667
aV3teku0066
p1668
aI93940
aI73306
aI01
aF15792.0
aF5159.0
aF19892.0
aF8686.0
aF14484.0
aF3639.0
aF7845.0
aF1528.0
aF7599.0
aF9316.0
ag1664
aI5
ag1667
aV3teku0067
p1669
aI86304
aI73594
aI01
aF13007.0
aF4938.0
aF14546.0
aF8124.0
aF12002.0
aF7283.0
aF15988.0
aF1366.0
aF5134.0
aF3916.0
ag1664
aI5
ag1667
aV3teku0068
p1670
aI97925
aI73442
aI01
aF8587.0
aF12087.0
aF11003.0
aF7379.0
aF4013.0
aF4688.0
aF12332.0
aF14414.0
aF15878.0
aF7544.0
ag1664
aI5
ag1667
aV3teku0069
p1671
aI55745
aI40033
aI01
aF2371.0
aF5295.0
aF3287.0
aF7179.0
aF5942.0
aF11495.0
aF1784.0
aF6049.0
aF4628.0
aF7715.0
ag1664
aI5
ag1667
aV3teku0070
p1672
aI91602
aI80477
aI01
aF12645.0
aF12760.0
aF13068.0
aF9043.0
aF7397.0
aF5671.0
aF5846.0
aF4037.0
aF13658.0
aF7477.0
aV\u98df\u7269\u305b\u3093\u3044\u3068\u308b\u3088\u3046\u2191
p1673
aI5
ag15
(S'\x07\xdf\x0b\x01'
p1674
tp1675
Rp1676
aV3teku0071
p1677
aI82926
aI64922
aNaF8321.0
aF3239.0
aF16258.0
aF9127.0
aF8952.0
aF2423.0
aF17011.0
aF12442.0
aF609.0
aF4544.0
ag1673
aI5
ag1676
aV3teku0072
p1678
aI58477
aI40912
aNaF2269.0
aF3319.0
aF6184.0
aF6909.0
aF7857.0
aF4734.0
aF8503.0
aF6364.0
aF6760.0
aF5578.0
ag1673
aI5
ag1676
aV3teku0073
p1679
aI62498
aI49582
aNaF10378.0
aF6895.0
aF5876.0
aF5564.0
aF5157.0
aF5845.0
aF9964.0
aF7021.0
aF2685.0
aF3113.0
ag1673
aI5
ag1676
aV3teku0074
p1680
aI26795
aI20003
aNaF1668.0
aF1829.0
aF1001.0
aF3508.0
aF2238.0
aF5543.0
aF538.0
aF5445.0
aF2499.0
aF2526.0
ag1673
aI5
ag1676
aV3teku0075
p1681
aI53885
aI37203
aNaF1197.0
aF4333.0
aF10809.0
aF3243.0
aF5323.0
aF3949.0
aF5927.0
aF9697.0
aF4344.0
aF5063.0
aV\u3072\u3068\u308a\u3067\u3082\u3084\u308b\u3082\u3093\uff01
p1682
aI1
ag15
(S'\x07\xdf\x0b\x01'
p1683
tp1684
Rp1685
aV3teku0076
p1686
aI55596
aI40053
aNaF249.0
aF2394.0
aF5960.0
aF6203.0
aF3103.0
aF2819.0
aF18043.0
aF5735.0
aF3271.0
aF7819.0
aV\u30c1\u30fc\u30e0\u30d0\u30f3\u30b3\u30af
p1687
aI3
ag15
(S'\x07\xdf\x0b\x01'
p1688
tp1689
Rp1690
aV3teku0077
p1691
aI83904
aI80184
aI01
aF11264.0
aF14000.0
aF7202.0
aF7061.0
aF2753.0
aF7105.0
aF13239.0
aF16484.0
aF2442.0
aF2354.0
ag1687
aI3
ag1690
aV3teku0078
p1692
aI96697
aI67014
aI01
aF14949.0
aF16255.0
aF23837.0
aF1004.0
aF3689.0
aF6686.0
aF18239.0
aF6806.0
aF3258.0
aF1974.0
ag1687
aI3
ag1690
aV3teku0079
p1693
aI51775
aI40681
aI01
aF5920.0
aF3999.0
aF9854.0
aF3051.0
aF3828.0
aF4410.0
aF8158.0
aF5198.0
aF1399.0
aF5958.0
aV\u30c1\u30fc\u30e0\u30d5\u30af\u30d5\u30af_3
p1694
aI3
ag15
(S'\x07\xdf\x0b\x01'
p1695
tp1696
Rp1697
aV3teku0080
p1698
aI65829
aI45569
aI01
aF5718.0
aF6912.0
aF12665.0
aF8382.0
aF7142.0
aF6998.0
aF6594.0
aF1181.0
aF5276.0
aF4961.0
ag1694
aI3
ag1697
aV3teku0081
p1699
aI75472
aI63225
aI01
aF13351.0
aF12113.0
aF15213.0
aF11626.0
aF8406.0
aF6378.0
aF51.0
aF1672.0
aF2626.0
aF4036.0
ag1694
aI3
ag1697
aV3teku0082
p1700
aI95656
aI80440
aI01
aF9383.0
aF18126.0
aF2823.0
aF12191.0
aF3989.0
aF16751.0
aF3019.0
aF18066.0
aF6106.0
aF5202.0
aV\u30b5\u30c0
p1701
aI1
ag15
(S'\x07\xdf\x0b\x01'
p1702
tp1703
Rp1704
aV3teku0083
p1705
aI67402
aI48185
aNaF8045.0
aF7203.0
aF6713.0
aF8180.0
aF7456.0
aF7727.0
aF6611.0
aF808.0
aF7489.0
aF7170.0
aV\u307e\u3042\u304d\u3093_3
p1706
aI1
ag15
(S'\x07\xdf\x0b\x01'
p1707
tp1708
Rp1709
aV3teku0084
p1710
aI186883
aI154299
aI01
aF16665.0
aF7232.0
aF27925.0
aF7711.0
aF7485.0
aF6660.0
aF48919.0
aF48359.0
aF7704.0
aF8223.0
aV\u3069\u3089\u3048\u3082\u3093\u5973\u5b50\u4f1a_3
p1711
aI5
ag15
(S'\x07\xdf\x0b\x01'
p1712
tp1713
Rp1714
aV3teku0085
p1715
aI76948
aI55525
aI01
aF5499.0
aF4200.0
aF6588.0
aF12840.0
aF7635.0
aF7120.0
aF10074.0
aF7380.0
aF10591.0
aF5021.0
ag1711
aI5
ag1714
aV3teku0086
p1716
aI97231
aI78484
aI01
aF8261.0
aF6304.0
aF9012.0
aF18229.0
aF3270.0
aF16800.0
aF15607.0
aF3448.0
aF1152.0
aF15148.0
ag1711
aI5
ag1714
aV3teku0087
p1717
aI81718
aI59822
aI01
aF6623.0
aF6708.0
aF12615.0
aF6814.0
aF13136.0
aF4997.0
aF9043.0
aF3509.0
aF10672.0
aF7601.0
ag1711
aI5
ag1714
aV3teku0088
p1718
aI60080
aI41286
aI01
aF3672.0
aF4429.0
aF10278.0
aF4493.0
aF4476.0
aF5629.0
aF5509.0
aF7489.0
aF8102.0
aF6003.0
ag1711
aI5
ag1714
aV3teku0089
p1719
aI59743
aI45191
aI01
aF12377.0
aF5418.0
aF8112.0
aF8166.0
aF4502.0
aF5184.0
aF5563.0
aF1855.0
aF4004.0
aF4562.0
aV\u4e09\u5341\u8def\u524d\uff08\uff11\u540d\u5b50\u3069\u3082\uff09_3
p1720
aI5
ag15
(S'\x07\xdf\x0b\x01'
p1721
tp1722
Rp1723
aV3teku0090
p1724
aI33532
aI23575
aI00
aF2596.0
aF3327.0
aF2083.0
aF7768.0
aF4346.0
aF5263.0
aF1213.0
aF917.0
aF1545.0
aF4474.0
ag1720
aI5
ag1723
aV3teku0091
p1725
aI30975
aI28105
aI00
aF1492.0
aF611.0
aF416.0
aF3806.0
aF1286.0
aF1608.0
aF15455.0
aF0.0
aF977.0
aF5324.0
ag1720
aI5
ag1723
aV3teku0092
p1726
aI0
aI0
aI00
aF0.0
aF0.0
aF0.0
aF0.0
aF0.0
aF0.0
aF0.0
aF0.0
aF0.0
aF0.0
ag1720
aI5
ag1723
aV3teku0093
p1727
aI40619
aI27117
aI00
aF0.0
aF875.0
aF12166.0
aF5463.0
aF2394.0
aF1824.0
aF10727.0
aF2404.0
aF3604.0
aF1162.0
ag1720
aI5
ag1723
aV3teku0094
p1728
aI0
aI0
aI00
aF0.0
aF0.0
aF0.0
aF0.0
aF0.0
aF0.0
aF0.0
aF0.0
aF0.0
aF0.0
aV\u6109\u5feb\u30d5\u30a1\u30df\u30ea\u30fc\uff34\uff06\uff26_3
p1729
aI3
ag15
(S'\x07\xdf\x0b\x01'
p1730
tp1731
Rp1732
aV3teku0095
p1733
aI114853
aI91362
aI01
aF10709.0
aF12901.0
aF16694.0
aF10210.0
aF11493.0
aF9370.0
aF14327.0
aF18804.0
aF7731.0
aF2614.0
ag1729
aI3
ag1732
aV3teku0096
p1734
aI84198
aI78508
aI01
aF8840.0
aF2091.0
aF24049.0
aF8705.0
aF7204.0
aF6724.0
aF946.0
aF17899.0
aF1571.0
aF6169.0
ag1729
aI3
ag1732
aV3teku0097
p1735
aI64245
aI48757
aI01
aF10221.0
aF4893.0
aF12492.0
aF4261.0
aF8745.0
aF4977.0
aF424.0
aF16712.0
aF26.0
aF1494.0
aV\uff2d\uff25\uff34\u2019\uff33_3
p1736
aI3
ag15
(S'\x07\xdf\x0b\x01'
p1737
tp1738
Rp1739
aV3teku0098
p1740
aI63200
aI48443
aNaF12858.0
aF895.0
aF15731.0
aF5643.0
aF4811.0
aF3631.0
aF5207.0
aF1565.0
aF11071.0
aF1788.0
ag1736
aI3
ag1739
aV3teku0099
p1741
aI93536
aI75581
aNaF17604.0
aF4710.0
aF15366.0
aF10219.0
aF8828.0
aF4972.0
aF10522.0
aF2292.0
aF11682.0
aF7341.0
ag1736
aI3
ag1739
aV3teku0100
p1742
aI45180
aI34346
aNaF10122.0
aF7583.0
aF9261.0
aF3671.0
aF8494.0
aF296.0
aF0.0
aF65.0
aF4888.0
aF800.0
aV\u30c1\u30e3\u30ed_3
p1743
aI3
ag15
(S'\x07\xdf\x0b\x01'
p1744
tp1745
Rp1746
aV3teku0101
p1747
aI64060
aI47222
aI01
aF6924.0
aF6248.0
aF6792.0
aF9521.0
aF7748.0
aF7759.0
aF7494.0
aF7299.0
aF2527.0
aF1748.0
ag1743
aI3
ag1746
aV3teku0102
p1748
aI71625
aI55038
aI01
aF9146.0
aF10125.0
aF9483.0
aF9862.0
aF5955.0
aF4245.0
aF9180.0
aF3173.0
aF6343.0
aF4113.0
ag1743
aI3
ag1746
aV3teku0103
p1749
aI85137
aI64008
aI01
aF7419.0
aF147.0
aF9715.0
aF8742.0
aF10180.0
aF10115.0
aF12590.0
aF8199.0
aF8352.0
aF9678.0
aVROCK_3
p1750
aI1
ag15
(S'\x07\xdf\x0b\x01'
p1751
tp1752
Rp1753
aV3teku0104
p1754
aI59174
aI43016
aNaF7226.0
aF3793.0
aF7529.0
aF6695.0
aF7703.0
aF6466.0
aF6190.0
aF6497.0
aF4495.0
aF2580.0
aV\u30c1\u30fc\u30e0\u4f8d_3
p1755
aI1
ag15
(S'\x07\xdf\x0b\x01'
p1756
tp1757
Rp1758
aV3teku0105
p1759
aI0
aI0
aI00
aF0.0
aF0.0
aF0.0
aF0.0
aF0.0
aF0.0
aF0.0
aF0.0
aF0.0
aF0.0
aV\u3068\u3068\u3081_3
p1760
aI1
ag15
(S'\x07\xdf\x0b\x01'
p1761
tp1762
Rp1763
aV3teku0106
p1764
aI34679
aI23779
aI00
aF4101.0
aF987.0
aF2752.0
aF3945.0
aF3433.0
aF3859.0
aF4619.0
aF1951.0
aF4778.0
aF4254.0
aVNK_3
p1765
aI1
ag15
(S'\x07\xdf\x0b\x01'
p1766
tp1767
Rp1768
aV3teku0107
p1769
aI7966
aI5516
aI00
aF30.0
aF36.0
aF1132.0
aF0.0
aF1349.0
aF729.0
aF192.0
aF2478.0
aF1932.0
aF88.0
aV\u30c1\u30fc\u30e0Housewife_3
p1770
aI3
ag15
(S'\x07\xdf\x0b\x01'
p1771
tp1772
Rp1773
aV3teku0108
p1774
aI0
aI0
aNaF0.0
aF0.0
aF0.0
aF0.0
aF0.0
aF0.0
aF0.0
aF0.0
aF0.0
aF0.0
ag1770
aI3
ag1773
aV3teku0109
p1775
aI0
aI0
aNaF0.0
aF0.0
aF0.0
aF0.0
aF0.0
aF0.0
aF0.0
aF0.0
aF0.0
aF0.0
ag1770
aI3
ag1773
aV3teku0110
p1776
aI0
aI0
aNaF0.0
aF0.0
aF0.0
aF0.0
aF0.0
aF0.0
aF0.0
aF0.0
aF0.0
aF0.0
aV\u30c1\u30fc\u30e0\u30b9\u30de\u30a4\u30eb\u263a_3
p1777
aI5
ag15
(S'\x07\xdf\x0b\x01'
p1778
tp1779
Rp1780
aV3teku0111
p1781
aI0
aI0
aI00
aF0.0
aF0.0
aF0.0
aF0.0
aF0.0
aF0.0
aF0.0
aF0.0
aF0.0
aF0.0
ag1777
aI5
ag1780
aV3teku0112
p1782
aI0
aI0
aI00
aF0.0
aF0.0
aF0.0
aF0.0
aF0.0
aF0.0
aF0.0
aF0.0
aF0.0
aF0.0
ag1777
aI5
ag1780
aV3teku0113
p1783
aI0
aI0
aI00
aF0.0
aF0.0
aF0.0
aF0.0
aF0.0
aF0.0
aF0.0
aF0.0
aF0.0
aF0.0
ag1777
aI5
ag1780
aV3teku0114
p1784
aI0
aI0
aI00
aF0.0
aF0.0
aF0.0
aF0.0
aF0.0
aF0.0
aF0.0
aF0.0
aF0.0
aF0.0
ag1777
aI5
ag1780
aV3teku0115
p1785
aI0
aI0
aI00
aF0.0
aF0.0
aF0.0
aF0.0
aF0.0
aF0.0
aF0.0
aF0.0
aF0.0
aF0.0
aV\u30ad\u30e8\u30b7_3
p1786
aI1
ag15
(S'\x07\xdf\x0b\x01'
p1787
tp1788
Rp1789
aV3teku0116
p1790
aI0
aI0
aNaF0.0
aF0.0
aF0.0
aF0.0
aF0.0
aF0.0
aF0.0
aF0.0
aF0.0
aF0.0
aV\u3066\u3047\uff5eY
p1791
aI5
ag15
(S'\x07\xdf\x0b\x01'
p1792
tp1793
Rp1794
aV3teku0117
p1795
aI103198
aI68973
aI01
aF20759.0
aF1882.0
aF38479.0
aF1888.0
aF4434.0
aF4091.0
aF11334.0
aF14630.0
aF3248.0
aF2453.0
ag1791
aI5
ag1794
aV3teku0118
p1796
aI68930
aI57128
aI01
aF2693.0
aF2471.0
aF30964.0
aF3853.0
aF3783.0
aF3019.0
aF9100.0
aF3090.0
aF3830.0
aF6127.0
ag1791
aI5
ag1794
aV3teku0119
p1797
aI71406
aI55036
aI01
aF2069.0
aF1928.0
aF35813.0
aF1817.0
aF2710.0
aF2164.0
aF6654.0
aF13401.0
aF2985.0
aF1865.0
ag1791
aI5
ag1794
aV3teku0120
p1798
aI84068
aI67668
aI01
aF5524.0
aF2332.0
aF35861.0
aF4866.0
aF4047.0
aF3588.0
aF7302.0
aF9047.0
aF4297.0
aF7204.0
ag1791
aI5
ag1794
aV3teku0121
p1799
aI92513
aI74836
aI01
aF4944.0
aF1414.0
aF35337.0
aF6327.0
aF6600.0
aF5914.0
aF7390.0
aF15940.0
aF2784.0
aF5863.0
aV\u3042\u3086\u307f\u308a\u3093
p1800
aI1
ag15
(S'\x07\xdf\x0b\x01'
p1801
tp1802
Rp1803
aV3teku0122
p1804
aI97046
aI83047
aI01
aF15231.0
aF18669.0
aF17119.0
aF17365.0
aF19247.0
aF514.0
aF5781.0
aF696.0
aF316.0
aF2108.0
aV\u30ed\u30fc\u30f3\u30a6\u30a9\u30fc\u30af_3
p1805
aI1
ag15
(S'\x07\xdf\x0b\x01'
p1806
tp1807
Rp1808
aV3teku0123
p1809
aI0
aI0
aNaF0.0
aF0.0
aF0.0
aF0.0
aF0.0
aF0.0
aF0.0
aF0.0
aF0.0
aF0.0
aV\u30df\u30ef
p1810
aI1
ag15
(S'\x07\xdf\x0b\x01'
p1811
tp1812
Rp1813
aV3teku0124
p1814
aI62558
aI46039
aNaF21853.0
aF3833.0
aF24983.0
aF187.0
aF0.0
aF8039.0
aF0.0
aF0.0
aF3663.0
aF0.0
aV\u30a6\u30a9\u30fc\u30ad\u30f3\u30b0\u30de\u30de
p1815
aI5
ag15
(S'\x07\xdf\x0b\x01'
p1816
tp1817
Rp1818
aV3teku0125
p1819
aI0
aI0
aNaF0.0
aF0.0
aF0.0
aF0.0
aF0.0
aF0.0
aF0.0
aF0.0
aF0.0
aF0.0
ag1815
aI5
ag1818
aV3teku0126
p1820
aI0
aI0
aNaF0.0
aF0.0
aF0.0
aF0.0
aF0.0
aF0.0
aF0.0
aF0.0
aF0.0
aF0.0
ag1815
aI5
ag1818
aV3teku0127
p1821
aI0
aI0
aNaF0.0
aF0.0
aF0.0
aF0.0
aF0.0
aF0.0
aF0.0
aF0.0
aF0.0
aF0.0
ag1815
aI5
ag1818
aV3teku0128
p1822
aI0
aI0
aNaF0.0
aF0.0
aF0.0
aF0.0
aF0.0
aF0.0
aF0.0
aF0.0
aF0.0
aF0.0
ag1815
aI5
ag1818
aV3teku0129
p1823
aI0
aI0
aNaF0.0
aF0.0
aF0.0
aF0.0
aF0.0
aF0.0
aF0.0
aF0.0
aF0.0
aF0.0
aV\u30a2\u30c3\u30d7\u30eb\u30d1\u30a4_3
p1824
aI1
ag15
(S'\x07\xdf\x0b\x01'
p1825
tp1826
Rp1827
aV3teku0130
p1828
aI0
aI0
aNaF0.0
aF0.0
aF0.0
aF0.0
aF0.0
aF0.0
aF0.0
aF0.0
aF0.0
aF0.0
aV\u30b4\u30c8\u30a6\u98df\u3079\u653e\u984c_3
p1829
aI5
ag15
(S'\x07\xdf\x0b\x01'
p1830
tp1831
Rp1832
aV3teku0131
p1833
aI44499
aI32066
aNaF3121.0
aF6057.0
aF3064.0
aF3988.0
aF3824.0
aF6486.0
aF5281.0
aF2763.0
aF5667.0
aF4248.0
ag1829
aI5
ag1832
aV3teku0132
p1834
aI63772
aI44043
aNaF5354.0
aF5949.0
aF8387.0
aF6869.0
aF4737.0
aF8068.0
aF6970.0
aF3467.0
aF8199.0
aF5772.0
ag1829
aI5
ag1832
aV3teku0133
p1835
aI107272
aI103969
aNaF12913.0
aF10552.0
aF11593.0
aF14650.0
aF12048.0
aF13121.0
aF5172.0
aF9232.0
aF14777.0
aF3214.0
ag1829
aI5
ag1832
aV3teku0134
p1836
aI74352
aI55135
aNaF1265.0
aF7549.0
aF2794.0
aF15980.0
aF12018.0
aF12566.0
aF1578.0
aF2908.0
aF11651.0
aF6043.0
ag1829
aI5
ag1832
aV3teku0135
p1837
aI38096
aI25907
aNaF3657.0
aF4180.0
aF4858.0
aF3377.0
aF3070.0
aF2354.0
aF6352.0
aF1646.0
aF4944.0
aF3658.0
aV\u30c1\u30fc\u30e0\u30d6\u30fc\u30ea\u30f3
p1838
aI5
ag15
(S'\x07\xdf\x0b\x01'
p1839
tp1840
Rp1841
aV3teku0136
p1842
aI41719
aI37044
aI00
aF4275.0
aF2845.0
aF3378.0
aF826.0
aF5368.0
aF6498.0
aF931.0
aF529.0
aF9581.0
aF7488.0
ag1838
aI5
ag1841
aV3teku0137
p1843
aI49465
aI48020
aI00
aF0.0
aF5060.0
aF894.0
aF4881.0
aF5482.0
aF4170.0
aF464.0
aF8215.0
aF4725.0
aF15574.0
ag1838
aI5
ag1841
aV3teku0138
p1844
aI0
aI0
aI00
aF0.0
aF0.0
aF0.0
aF0.0
aF0.0
aF0.0
aF0.0
aF0.0
aF0.0
aF0.0
ag1838
aI5
ag1841
aV3teku0139
p1845
aI0
aI0
aI00
aF0.0
aF0.0
aF0.0
aF0.0
aF0.0
aF0.0
aF0.0
aF0.0
aF0.0
aF0.0
ag1838
aI5
ag1841
aV3teku0140
p1846
aI76777
aI58194
aI00
aF0.0
aF6851.0
aF5605.0
aF5942.0
aF8210.0
aF6982.0
aF20639.0
aF12196.0
aF4662.0
aF5690.0
aV\u5149\u30d5\u30a1\u30a4\u30d0\u30fc_3
p1847
aI5
ag15
(S'\x07\xdf\x0b\x01'
p1848
tp1849
Rp1850
aV3teku0141
p1851
aI95199
aI67211
aI01
aF18223.0
aF6477.0
aF23612.0
aF11805.0
aF13030.0
aF7265.0
aF6922.0
aF708.0
aF99.0
aF7058.0
ag1847
aI5
ag1850
aV3teku0142
p1852
aI102092
aI51133
aI01
aF5733.0
aF12839.0
aF14505.0
aF15251.0
aF7218.0
aF15689.0
aF6949.0
aF679.0
aF9213.0
aF14016.0
ag1847
aI5
ag1850
aV3teku0143
p1853
aI130719
aI90206
aI01
aF12224.0
aF7923.0
aF19624.0
aF11731.0
aF11648.0
aF13456.0
aF15252.0
aF11074.0
aF16077.0
aF11710.0
ag1847
aI5
ag1850
aV3teku0144
p1854
aI96588
aI65166
aI01
aF11014.0
aF16867.0
aF11024.0
aF11491.0
aF14595.0
aF7435.0
aF3141.0
aF103.0
aF12047.0
aF8871.0
ag1847
aI5
ag1850
aV3teku0145
p1855
aI91197
aI70302
aI01
aF8452.0
aF7427.0
aF7664.0
aF11087.0
aF9770.0
aF11612.0
aF6154.0
aF5338.0
aF12505.0
aF11188.0
aV\uff13\uff16\u4f1a\u9060\u8db3\u30af\u30e9\u30d6
p1856
aI5
ag15
(S'\x07\xdf\x0b\x01'
p1857
tp1858
Rp1859
aV3teku0146
p1860
aI115834
aI90032
aI01
aF18260.0
aF12912.0
aF20950.0
aF12476.0
aF16229.0
aF4941.0
aF16006.0
aF10258.0
aF2248.0
aF1554.0
ag1856
aI5
ag1859
aV3teku0147
p1861
aI166017
aI129286
aI01
aF31545.0
aF17051.0
aF21313.0
aF10638.0
aF12266.0
aF6676.0
aF34291.0
aF4730.0
aF11388.0
aF16119.0
ag1856
aI5
ag1859
aV3teku0148
p1862
aI181279
aI130288
aI01
aF47312.0
aF7549.0
aF15012.0
aF10642.0
aF12381.0
aF11010.0
aF17006.0
aF27969.0
aF16580.0
aF15818.0
ag1856
aI5
ag1859
aV3teku0149
p1863
aI163758
aI121157
aI01
aF28974.0
aF10210.0
aF15034.0
aF10444.0
aF15153.0
aF13476.0
aF25741.0
aF14659.0
aF12896.0
aF17171.0
ag1856
aI5
ag1859
aV3teku0150
p1864
aI135976
aI83546
aI01
aF12600.0
aF10050.0
aF31969.0
aF13716.0
aF6167.0
aF10320.0
aF8151.0
aF18074.0
aF9812.0
aF15117.0
aV\u3055\u3093\u3074\u3093\u8336
p1865
aI3
ag15
(S'\x07\xdf\x0b\x01'
p1866
tp1867
Rp1868
aV3teku0151
p1869
aI125290
aI102113
aNaF14643.0
aF3882.0
aF41055.0
aF11311.0
aF10282.0
aF11831.0
aF16342.0
aF9842.0
aF3622.0
aF2480.0
ag1865
aI3
ag1868
aV3teku0152
p1870
aI100184
aI86708
aNaF9661.0
aF458.0
aF36330.0
aF10856.0
aF10291.0
aF153.0
aF23312.0
aF6413.0
aF530.0
aF2180.0
ag1865
aI3
ag1868
aV3teku0153
p1871
aI0
aI0
aNaF0.0
aF0.0
aF0.0
aF0.0
aF0.0
aF0.0
aF0.0
aF0.0
aF0.0
aF0.0
aV\u30e8\u30c3\u30b5\u30f3\uff15\uff15_3
p1872
aI1
ag15
(S'\x07\xdf\x0b\x01'
p1873
tp1874
Rp1875
aV3teku0154
p1876
aI0
aI0
aNaF0.0
aF0.0
aF0.0
aF0.0
aF0.0
aF0.0
aF0.0
aF0.0
aF0.0
aF0.0
aV\u30b1\u30a4\u30ac\u30a6_3
p1877
aI3
ag15
(S'\x07\xdf\x0b\x01'
p1878
tp1879
Rp1880
aV3teku0155
p1881
aI64330
aI56476
aNaF10414.0
aF2334.0
aF9589.0
aF3302.0
aF5231.0
aF5067.0
aF3628.0
aF20461.0
aF1984.0
aF2320.0
ag1877
aI3
ag1880
aV3teku0156
p1882
aI52238
aI41572
aNaF14561.0
aF614.0
aF6965.0
aF1981.0
aF550.0
aF733.0
aF14639.0
aF11227.0
aF387.0
aF581.0
ag1877
aI3
ag1880
aV3teku0157
p1883
aI0
aI0
aNaF0.0
aF0.0
aF0.0
aF0.0
aF0.0
aF0.0
aF0.0
aF0.0
aF0.0
aF0.0
aV\uff43\uff48\uff49\uff50\uff50\uff59_3
p1884
aI1
ag15
(S'\x07\xdf\x0b\x01'
p1885
tp1886
Rp1887
aV3teku0158
p1888
aI80578
aI74765
aI01
aF11071.0
aF9513.0
aF13080.0
aF6546.0
aF10035.0
aF6706.0
aF15003.0
aF593.0
aF4393.0
aF3638.0
aV\uff28\uff2f\uff32\uff29Z\uff2f\uff2e_3
p1889
aI1
ag15
(S'\x07\xdf\x0b\x01'
p1890
tp1891
Rp1892
aV3teku0159
p1893
aI0
aI0
aI00
aF0.0
aF0.0
aF0.0
aF0.0
aF0.0
aF0.0
aF0.0
aF0.0
aF0.0
aF0.0
aVBLFC_3
p1894
aI5
ag15
(S'\x07\xdf\x0b\x01'
p1895
tp1896
Rp1897
aV3teku0160
p1898
aI72311
aI59389
aNaF6027.0
aF10081.0
aF12284.0
aF4391.0
aF578.0
aF9059.0
aF6243.0
aF11720.0
aF8007.0
aF3921.0
ag1894
aI5
ag1897
aV3teku0161
p1899
aI43207
aI31648
aNaF3116.0
aF1436.0
aF1143.0
aF2101.0
aF3590.0
aF6406.0
aF9073.0
aF1015.0
aF8432.0
aF6895.0
ag1894
aI5
ag1897
aV3teku0162
p1900
aI68626
aI50152
aNaF16108.0
aF4312.0
aF2772.0
aF11295.0
aF6616.0
aF8152.0
aF6845.0
aF1348.0
aF7083.0
aF4095.0
ag1894
aI5
ag1897
aV3teku0163
p1901
aI49964
aI36554
aNaF1184.0
aF3273.0
aF12497.0
aF45.0
aF11727.0
aF567.0
aF921.0
aF8086.0
aF10503.0
aF1161.0
ag1894
aI5
ag1897
aV3teku0164
p1902
aI49248
aI36869
aNaF10678.0
aF333.0
aF8139.0
aF3999.0
aF7049.0
aF6378.0
aF3418.0
aF2648.0
aF2060.0
aF4546.0
aVPOM-\uff12_3
p1903
aI3
ag15
(S'\x07\xdf\x0b\x01'
p1904
tp1905
Rp1906
aV3teku0165
p1907
aI191643
aI152449
aI01
aF19260.0
aF17830.0
aF22611.0
aF21678.0
aF18074.0
aF21992.0
aF16689.0
aF9791.0
aF18048.0
aF25670.0
ag1903
aI3
ag1906
aV3teku0166
p1908
aI61409
aI50839
aI01
aF5877.0
aF3125.0
aF8923.0
aF959.0
aF6873.0
aF6375.0
aF16954.0
aF81.0
aF2625.0
aF9617.0
ag1903
aI3
ag1906
aV3teku0167
p1909
aI98562
aI71870
aI01
aF11385.0
aF13012.0
aF1310.0
aF11357.0
aF12860.0
aF11509.0
aF8421.0
aF1674.0
aF13972.0
aF13062.0
aV\u306f\u304b\u305f
p1910
aI3
ag15
(S'\x07\xdf\x0b\x01'
p1911
tp1912
Rp1913
aV3teku0168
p1914
aI52580
aI39709
aNaF8564.0
aF4153.0
aF8087.0
aF2937.0
aF7407.0
aF4833.0
aF4544.0
aF7671.0
aF1479.0
aF2905.0
ag1910
aI3
ag1913
aV3teku0169
p1915
aI0
aI0
aNaF0.0
aF0.0
aF0.0
aF0.0
aF0.0
aF0.0
aF0.0
aF0.0
aF0.0
aF0.0
ag1910
aI3
ag1913
aV3teku0170
p1916
aI49138
aI37013
aNaF8533.0
aF2282.0
aF4653.0
aF4650.0
aF2101.0
aF1614.0
aF12131.0
aF4944.0
aF2498.0
aF5732.0
aV\uff34_3
p1917
aI1
ag15
(S'\x07\xdf\x0b\x01'
p1918
tp1919
Rp1920
aV3teku0171
p1921
aI0
aI0
aNaF0.0
aF0.0
aF0.0
aF0.0
aF0.0
aF0.0
aF0.0
aF0.0
aF0.0
aF0.0
aV\u3061\u30fc\u3080\u3044\u3058_3
p1922
aI5
ag15
(S'\x07\xdf\x0b\x01'
p1923
tp1924
Rp1925
aV3teku0172
p1926
aI128660
aI91011
aI01
aF17757.0
aF12678.0
aF14717.0
aF10807.0
aF9947.0
aF8049.0
aF22001.0
aF7209.0
aF11714.0
aF13781.0
ag1922
aI5
ag1925
aV3teku0173
p1927
aI224854
aI169786
aI01
aF25851.0
aF16229.0
aF31401.0
aF18766.0
aF22431.0
aF15724.0
aF32137.0
aF22226.0
aF18927.0
aF21162.0
ag1922
aI5
ag1925
aV3teku0174
p1928
aI35062
aI27817
aI01
aF2093.0
aF3311.0
aF5085.0
aF2263.0
aF3114.0
aF4084.0
aF5435.0
aF1433.0
aF3617.0
aF4627.0
ag1922
aI5
ag1925
aV3teku0175
p1929
aI163646
aI125547
aI01
aF28663.0
aF10370.0
aF13137.0
aF18657.0
aF12829.0
aF12746.0
aF31388.0
aF11776.0
aF10317.0
aF13763.0
ag1922
aI5
ag1925
aV3teku0176
p1930
aI134509
aI95224
aI01
aF24403.0
aF13555.0
aF14061.0
aF14899.0
aF7332.0
aF13440.0
aF13978.0
aF11857.0
aF6729.0
aF14255.0
aV\u304f\u308a\u306e\u6728_3
p1931
aI3
ag15
(S'\x07\xdf\x0b\x01'
p1932
tp1933
Rp1934
aV3teku0177
p1935
aI98263
aI64057
aI01
aF12501.0
aF10356.0
aF9929.0
aF13558.0
aF21893.0
aF4702.0
aF6640.0
aF13262.0
aF2033.0
aF3389.0
ag1931
aI3
ag1934
aV3teku0178
p1936
aI71537
aI51298
aI01
aF21811.0
aF647.0
aF398.0
aF9671.0
aF13763.0
aF0.0
aF11390.0
aF11280.0
aF794.0
aF1783.0
ag1931
aI3
ag1934
aV3teku0179
p1937
aI162852
aI105805
aI01
aF17381.0
aF14381.0
aF12340.0
aF15462.0
aF20192.0
aF24271.0
aF7246.0
aF12902.0
aF10277.0
aF28400.0
aV\u3055\u3070\u305a\u3057_3
p1938
aI3
ag15
(S'\x07\xdf\x0b\x01'
p1939
tp1940
Rp1941
aV3teku0180
p1942
aI56237
aI39588
aI00
aF8607.0
aF3845.0
aF3380.0
aF2791.0
aF2608.0
aF303.0
aF3081.0
aF22485.0
aF3890.0
aF5247.0
ag1938
aI3
ag1941
aV3teku0181
p1943
aI0
aI0
aI00
aF0.0
aF0.0
aF0.0
aF0.0
aF0.0
aF0.0
aF0.0
aF0.0
aF0.0
aF0.0
ag1938
aI3
ag1941
aV3teku0182
p1944
aI0
aI0
aI00
aF0.0
aF0.0
aF0.0
aF0.0
aF0.0
aF0.0
aF0.0
aF0.0
aF0.0
aF0.0
aV\u30a2\u30ad_3
p1945
aI1
ag15
(S'\x07\xdf\x0b\x01'
p1946
tp1947
Rp1948
aV3teku0183
p1949
aI0
aI0
aNaF0.0
aF0.0
aF0.0
aF0.0
aF0.0
aF0.0
aF0.0
aF0.0
aF0.0
aF0.0
aV\u5317\u5ddd\u5bb6_3
p1950
aI1
ag15
(S'\x07\xdf\x0b\x01'
p1951
tp1952
Rp1953
aV3teku0184
p1954
aI0
aI0
aNaF0.0
aF0.0
aF0.0
aF0.0
aF0.0
aF0.0
aF0.0
aF0.0
aF0.0
aF0.0
aV\u3055\u3064\u307e\u3044\u3082_3
p1955
aI5
ag15
(S'\x07\xdf\x0b\x01'
p1956
tp1957
Rp1958
aV3teku0185
p1959
aI103724
aI92211
aI01
aF9007.0
aF5664.0
aF6092.0
aF6825.0
aF7081.0
aF22245.0
aF11289.0
aF12493.0
aF12191.0
aF10837.0
ag1955
aI5
ag1958
aV3teku0186
p1960
aI62531
aI52536
aI01
aF132.0
aF3767.0
aF6571.0
aF24364.0
aF8085.0
aF2645.0
aF6220.0
aF0.0
aF0.0
aF10747.0
ag1955
aI5
ag1958
aV3teku0187
p1961
aI254478
aI201876
aI01
aF25524.0
aF38405.0
aF20093.0
aF23218.0
aF49911.0
aF16543.0
aF22561.0
aF20913.0
aF10813.0
aF26497.0
ag1955
aI5
ag1958
aV3teku0188
p1962
aI58142
aI43069
aI01
aF7588.0
aF787.0
aF738.0
aF27143.0
aF7531.0
aF1505.0
aF2406.0
aF1371.0
aF1197.0
aF7876.0
ag1955
aI5
ag1958
aV3teku0189
p1963
aI130226
aI108564
aI01
aF5977.0
aF3954.0
aF24144.0
aF41053.0
aF6470.0
aF12390.0
aF19271.0
aF1535.0
aF1689.0
aF13743.0
aVtoday_3
p1964
aI1
ag15
(S'\x07\xdf\x0b\x01'
p1965
tp1966
Rp1967
aV3teku0190
p1968
aI33933
aI30610
aI00
aF7888.0
aF8590.0
aF8167.0
aF1837.0
aF1507.0
aF252.0
aF4334.0
aF322.0
aF0.0
aF1036.0
aV\u30b9\u30d0\u30eb_3
p1969
aI1
ag15
(S'\x07\xdf\x0b\x01'
p1970
tp1971
Rp1972
aV3teku0191
p1973
aI17519
aI13768
aI00
aF5972.0
aF1611.0
aF307.0
aF1934.0
aF811.0
aF1145.0
aF1311.0
aF90.0
aF2780.0
aF1558.0
aV\u4e38\u5584
p1974
aI1
ag15
(S'\x07\xdf\x0b\x01'
p1975
tp1976
Rp1977
aV3teku0192
p1978
aI0
aI0
aNaF0.0
aF0.0
aF0.0
aF0.0
aF0.0
aF0.0
aF0.0
aF0.0
aF0.0
aF0.0
aV\u30b5\u30c3\u3061\u3083\u3093\u30ac\u30fc\u30eb\u30ba
p1979
aI5
ag15
(S'\x07\xdf\x0b\x01'
p1980
tp1981
Rp1982
aV3teku0193
p1983
aI0
aI0
aNaF0.0
aF0.0
aF0.0
aF0.0
aF0.0
aF0.0
aF0.0
aF0.0
aF0.0
aF0.0
ag1979
aI5
ag1982
aV3teku0194
p1984
aI0
aI0
aNaF0.0
aF0.0
aF0.0
aF0.0
aF0.0
aF0.0
aF0.0
aF0.0
aF0.0
aF0.0
ag1979
aI5
ag1982
aV3teku0195
p1985
aI0
aI0
aNaF0.0
aF0.0
aF0.0
aF0.0
aF0.0
aF0.0
aF0.0
aF0.0
aF0.0
aF0.0
ag1979
aI5
ag1982
aV3teku0196
p1986
aI0
aI0
aNaF0.0
aF0.0
aF0.0
aF0.0
aF0.0
aF0.0
aF0.0
aF0.0
aF0.0
aF0.0
ag1979
aI5
ag1982
aV3teku0197
p1987
aI0
aI0
aNaF0.0
aF0.0
aF0.0
aF0.0
aF0.0
aF0.0
aF0.0
aF0.0
aF0.0
aF0.0
aV\u7f8e\u7d00\u3061\u3083\u3093_3
p1988
aI1
ag15
(S'\x07\xdf\x0b\x01'
p1989
tp1990
Rp1991
aV3teku0198
p1992
aI0
aI0
aNaF0.0
aF0.0
aF0.0
aF0.0
aF0.0
aF0.0
aF0.0
aF0.0
aF0.0
aF0.0
aV\u795e\u7167\u516c\u6c11\u9928
p1993
aI5
ag15
(S'\x07\xdf\x0b\x01'
p1994
tp1995
Rp1996
aV3teku0199
p1997
aI71009
aI50688
aNaF11852.0
aF12624.0
aF5071.0
aF9106.0
aF3584.0
aF6145.0
aF5766.0
aF5601.0
aF6455.0
aF4805.0
ag1993
aI5
ag1996
aV3teku0200
p1998
aI59180
aI43730
aNaF2890.0
aF7507.0
aF5353.0
aF7020.0
aF6399.0
aF6612.0
aF7027.0
aF1810.0
aF7880.0
aF6682.0
ag1993
aI5
ag1996
aV3teku0201
p1999
aI55073
aI39488
aNaF6689.0
aF3524.0
aF4673.0
aF6192.0
aF2039.0
aF274.0
aF13182.0
aF6372.0
aF10660.0
aF1468.0
ag1993
aI5
ag1996
aV3teku0202
p2000
aI53877
aI42014
aNaF4594.0
aF1093.0
aF6514.0
aF5153.0
aF9229.0
aF6135.0
aF6209.0
aF3693.0
aF3153.0
aF8104.0
ag1993
aI5
ag1996
aV3teku0203
p2001
aI0
aI0
aNaF0.0
aF0.0
aF0.0
aF0.0
aF0.0
aF0.0
aF0.0
aF0.0
aF0.0
aF0.0
aV\u307f\u306e\u308b\u3061\u3083\u3093
p2002
aI1
ag15
(S'\x07\xdf\x0b\x01'
p2003
tp2004
Rp2005
aV3teku0204
p2006
aI0
aI0
aNaF0.0
aF0.0
aF0.0
aF0.0
aF0.0
aF0.0
aF0.0
aF0.0
aF0.0
aF0.0
aV\u3066\u304f\uff12 \u3068\u307c\uff12
p2007
aI3
ag15
(S'\x07\xdf\x0b\x01'
p2008
tp2009
Rp2010
aV3teku0205
p2011
aI0
aI0
aNaF0.0
aF0.0
aF0.0
aF0.0
aF0.0
aF0.0
aF0.0
aF0.0
aF0.0
aF0.0
ag2007
aI3
ag2010
aV3teku0206
p2012
aI0
aI0
aNaF0.0
aF0.0
aF0.0
aF0.0
aF0.0
aF0.0
aF0.0
aF0.0
aF0.0
aF0.0
ag2007
aI3
ag2010
aV3teku0207
p2013
aI0
aI0
aNaF0.0
aF0.0
aF0.0
aF0.0
aF0.0
aF0.0
aF0.0
aF0.0
aF0.0
aF0.0
aV\u30ed\u30c3\u30ad\u30fc
p2014
aI3
ag15
(S'\x07\xdf\x0b\x01'
p2015
tp2016
Rp2017
aV3teku0208
p2018
aI70551
aI59046
aNaF9421.0
aF2252.0
aF17662.0
aF14618.0
aF4759.0
aF3432.0
aF6033.0
aF8161.0
aF1938.0
aF2275.0
ag2014
aI3
ag2017
aV3teku0209
p2019
aI45528
aI33696
aNaF7815.0
aF2023.0
aF11736.0
aF1058.0
aF1445.0
aF2764.0
aF10102.0
aF6804.0
aF514.0
aF1267.0
ag2014
aI3
ag2017
aV3teku0210
p2020
aI53374
aI47044
aNaF22119.0
aF2296.0
aF7766.0
aF472.0
aF3072.0
aF2955.0
aF6397.0
aF2421.0
aF3256.0
aF2620.0
aV\u30c1\u30fc\u30e0\u307e\u308b
p2021
aI3
ag15
(S'\x07\xdf\x0b\x01'
p2022
tp2023
Rp2024
aV3teku0211
p2025
aI68565
aI60512
aI01
aF8024.0
aF5533.0
aF14394.0
aF8848.0
aF4685.0
aF3839.0
aF5005.0
aF8346.0
aF4382.0
aF5509.0
ag2021
aI3
ag2024
aV3teku0212
p2026
aI50765
aI44074
aI01
aF7149.0
aF6273.0
aF11495.0
aF4487.0
aF4697.0
aF5185.0
aF2917.0
aF2335.0
aF1955.0
aF4272.0
ag2021
aI3
ag2024
aV3teku0213
p2027
aI96655
aI71051
aI01
aF10478.0
aF11503.0
aF16038.0
aF13775.0
aF9649.0
aF11930.0
aF7131.0
aF1950.0
aF4429.0
aF9772.0
aV\u304a\u3050\u3089\u30b5\u30f3\u30c7\u30fc
p2028
aI3
ag15
(S'\x07\xdf\x0b\x01'
p2029
tp2030
Rp2031
aV3teku0214
p2032
aI132366
aI104820
aI01
aF10327.0
aF13670.0
aF20272.0
aF22414.0
aF12015.0
aF12532.0
aF10257.0
aF9531.0
aF10278.0
aF11070.0
ag2028
aI3
ag2031
aV3teku0215
p2033
aI75714
aI54240
aI01
aF11745.0
aF7809.0
aF18794.0
aF1645.0
aF7127.0
aF5624.0
aF2264.0
aF9286.0
aF3009.0
aF8411.0
ag2028
aI3
ag2031
aV3teku0216
p2034
aI56114
aI45823
aI01
aF8997.0
aF7273.0
aF18192.0
aF12572.0
aF1518.0
aF901.0
aF427.0
aF1973.0
aF2715.0
aF1546.0
aV\u30c1\u30fc\u30e0 \u307d\u3093\u307d\u3053\u30dd\u30f3
p2035
aI5
ag15
(S'\x07\xdf\x0b\x01'
p2036
tp2037
Rp2038
aV3teku0217
p2039
aI131352
aI100630
aI01
aF14158.0
aF14044.0
aF23866.0
aF11538.0
aF12510.0
aF11489.0
aF14868.0
aF5288.0
aF9734.0
aF13857.0
ag2035
aI5
ag2038
aV3teku0218
p2040
aI81634
aI61199
aI01
aF10302.0
aF9567.0
aF10239.0
aF7799.0
aF8782.0
aF10076.0
aF4281.0
aF2920.0
aF8088.0
aF9580.0
ag2035
aI5
ag2038
aV3teku0219
p2041
aI103061
aI112861
aI01
aF13518.0
aF14643.0
aF5531.0
aF15839.0
aF12557.0
aF8019.0
aF4892.0
aF7638.0
aF13928.0
aF6496.0
ag2035
aI5
ag2038
aV3teku0220
p2042
aI51827
aI41256
aI01
aF2465.0
aF637.0
aF2252.0
aF9141.0
aF10777.0
aF7305.0
aF8037.0
aF5889.0
aF1562.0
aF3762.0
ag2035
aI5
ag2038
aV3teku0221
p2043
aI98323
aI74546
aI01
aF11909.0
aF12621.0
aF16395.0
aF10957.0
aF7607.0
aF7585.0
aF6433.0
aF7463.0
aF8846.0
aF8507.0
aV\u30d5\u30c4\u30b1\u30f3
p2044
aI3
ag15
(S'\x07\xdf\x0b\x01'
p2045
tp2046
Rp2047
aV3teku0222
p2048
aI0
aI0
aNaF0.0
aF0.0
aF0.0
aF0.0
aF0.0
aF0.0
aF0.0
aF0.0
aF0.0
aF0.0
ag2044
aI3
ag2047
aV3teku0223
p2049
aI8323
aI6794
aNaF7681.0
aF642.0
aF0.0
aF0.0
aF0.0
aF0.0
aF0.0
aF0.0
aF0.0
aF0.0
ag2044
aI3
ag2047
aV3teku0224
p2050
aI0
aI0
aNaF0.0
aF0.0
aF0.0
aF0.0
aF0.0
aF0.0
aF0.0
aF0.0
aF0.0
aF0.0
aV\u3073\u308f\u3053\u30c1\u30fc\u30e0_3
p2051
aI1
ag15
(S'\x07\xdf\x0b\x01'
p2052
tp2053
Rp2054
aV3teku0225
p2055
aI0
aI0
aNaF0.0
aF0.0
aF0.0
aF0.0
aF0.0
aF0.0
aF0.0
aF0.0
aF0.0
aF0.0
aV\u30ce\u30d6\u3061\u3083\u3093
p2056
aI1
ag15
(S'\x07\xdf\x0b\x01'
p2057
tp2058
Rp2059
aV3teku0226
p2060
aI0
aI0
aNaF0.0
aF0.0
aF0.0
aF0.0
aF0.0
aF0.0
aF0.0
aF0.0
aF0.0
aF0.0
aV\u304b\u306a\u3048
p2061
aI3
ag15
(S'\x07\xdf\x0b\x01'
p2062
tp2063
Rp2064
aV3teku0227
p2065
aI0
aI0
aNaF0.0
aF0.0
aF0.0
aF0.0
aF0.0
aF0.0
aF0.0
aF0.0
aF0.0
aF0.0
ag2061
aI3
ag2064
aV3teku0228
p2066
aI0
aI0
aNaF0.0
aF0.0
aF0.0
aF0.0
aF0.0
aF0.0
aF0.0
aF0.0
aF0.0
aF0.0
ag2061
aI3
ag2064
aV3teku0229
p2067
aI0
aI0
aNaF0.0
aF0.0
aF0.0
aF0.0
aF0.0
aF0.0
aF0.0
aF0.0
aF0.0
aF0.0
aVTOUTA
p2068
aI5
ag15
(S'\x07\xdf\x0b\x01'
p2069
tp2070
Rp2071
aV3teku0230
p2072
aI0
aI0
aNaF0.0
aF0.0
aF0.0
aF0.0
aF0.0
aF0.0
aF0.0
aF0.0
aF0.0
aF0.0
ag2068
aI5
ag2071
aV3teku0231
p2073
aI80711
aI56230
aNaF9119.0
aF7630.0
aF18605.0
aF6448.0
aF6889.0
aF6251.0
aF2417.0
aF10444.0
aF7676.0
aF5232.0
ag2068
aI5
ag2071
aV3teku0232
p2074
aI64439
aI47693
aNaF992.0
aF9452.0
aF6095.0
aF7063.0
aF6838.0
aF11123.0
aF9968.0
aF1798.0
aF5446.0
aF5664.0
ag2068
aI5
ag2071
aV3teku0233
p2075
aI0
aI0
aNaF0.0
aF0.0
aF0.0
aF0.0
aF0.0
aF0.0
aF0.0
aF0.0
aF0.0
aF0.0
ag2068
aI5
ag2071
aV3teku0234
p2076
aI0
aI0
aNaF0.0
aF0.0
aF0.0
aF0.0
aF0.0
aF0.0
aF0.0
aF0.0
aF0.0
aF0.0
aV\u7947\u5712\uff17\u7d44
p2077
aI3
ag15
(S'\x07\xdf\x0b\x01'
p2078
tp2079
Rp2080
aV3teku0235
p2081
aI92567
aI74293
aNaF8194.0
aF10265.0
aF6270.0
aF6999.0
aF12362.0
aF8012.0
aF15666.0
aF12140.0
aF3957.0
aF8702.0
ag2077
aI3
ag2080
aV3teku0236
p2082
aI0
aI0
aNaF0.0
aF0.0
aF0.0
aF0.0
aF0.0
aF0.0
aF0.0
aF0.0
aF0.0
aF0.0
ag2077
aI3
ag2080
aV3teku0237
p2083
aI0
aI0
aNaF0.0
aF0.0
aF0.0
aF0.0
aF0.0
aF0.0
aF0.0
aF0.0
aF0.0
aF0.0
aV\u8d64\u30b7\u30e3\u30c4
p2084
aI1
ag15
(S'\x07\xdf\x0b\x01'
p2085
tp2086
Rp2087
aV3teku0238
p2088
aI0
aI0
aNaF0.0
aF0.0
aF0.0
aF0.0
aF0.0
aF0.0
aF0.0
aF0.0
aF0.0
aF0.0
aV\u3086\u3046\u3053\u2661\u30ea\u30fc\u30ca
p2089
aI5
ag15
(S'\x07\xdf\x0b\x01'
p2090
tp2091
Rp2092
aV3teku0239
p2093
aI63365
aI43217
aNaF9258.0
aF4116.0
aF12645.0
aF6713.0
aF3686.0
aF9764.0
aF5114.0
aF1058.0
aF6383.0
aF4628.0
ag2089
aI5
ag2092
aV3teku0240
p2094
aI53598
aI42578
aNaF1795.0
aF4370.0
aF2083.0
aF3788.0
aF4035.0
aF8029.0
aF5298.0
aF5003.0
aF6007.0
aF13190.0
ag2089
aI5
ag2092
aV3teku0241
p2095
aI56070
aI44439
aNaF1110.0
aF6444.0
aF6405.0
aF5997.0
aF6781.0
aF7749.0
aF2793.0
aF7292.0
aF3310.0
aF8189.0
ag2089
aI5
ag2092
aV3teku0242
p2096
aI61509
aI52182
aNaF2965.0
aF5481.0
aF7867.0
aF8136.0
aF7935.0
aF9082.0
aF11362.0
aF193.0
aF2135.0
aF6353.0
ag2089
aI5
ag2092
aV3teku0243
p2097
aI63027
aI44892
aNaF6219.0
aF5869.0
aF8947.0
aF8414.0
aF4747.0
aF6399.0
aF4928.0
aF5268.0
aF6161.0
aF6075.0
aV\u30c1\u30fc\u30e0\u91d1\u592a\u90ce_3
p2098
aI5
ag15
(S'\x07\xdf\x0b\x01'
p2099
tp2100
Rp2101
aV3teku0244
p2102
aI0
aI0
aNaF0.0
aF0.0
aF0.0
aF0.0
aF0.0
aF0.0
aF0.0
aF0.0
aF0.0
aF0.0
ag2098
aI5
ag2101
aV3teku0245
p2103
aI0
aI0
aNaF0.0
aF0.0
aF0.0
aF0.0
aF0.0
aF0.0
aF0.0
aF0.0
aF0.0
aF0.0
ag2098
aI5
ag2101
aV3teku0246
p2104
aI0
aI0
aNaF0.0
aF0.0
aF0.0
aF0.0
aF0.0
aF0.0
aF0.0
aF0.0
aF0.0
aF0.0
ag2098
aI5
ag2101
aV3teku0247
p2105
aI33204
aI26227
aNaF1961.0
aF579.0
aF9892.0
aF2618.0
aF2725.0
aF2681.0
aF4091.0
aF3561.0
aF3476.0
aF1620.0
ag2098
aI5
ag2101
aV3teku0248
p2106
aI0
aI0
aNaF0.0
aF0.0
aF0.0
aF0.0
aF0.0
aF0.0
aF0.0
aF0.0
aF0.0
aF0.0
aV\u30bf\u30de
p2107
aI1
ag15
(S'\x07\xdf\x0b\x01'
p2108
tp2109
Rp2110
aV3teku0249
p2111
aI0
aI0
aNaF0.0
aF0.0
aF0.0
aF0.0
aF0.0
aF0.0
aF0.0
aF0.0
aF0.0
aF0.0
aV\u677e
p2112
aI1
ag15
(S'\x07\xdf\x0b\x01'
p2113
tp2114
Rp2115
aV3teku0250
p2116
aI0
aI0
aNaF0.0
aF0.0
aF0.0
aF0.0
aF0.0
aF0.0
aF0.0
aF0.0
aF0.0
aF0.0
aV\u3066\u308b\u3061\u3083\u3093\u305a Season\uff12
p2117
aI3
ag15
(S'\x07\xdf\x0b\x01'
p2118
tp2119
Rp2120
aV3teku0251
p2121
aI34881
aI28310
aNaF18188.0
aF4831.0
aF11862.0
aF0.0
aF0.0
aF0.0
aF0.0
aF0.0
aF0.0
aF0.0
ag2117
aI3
ag2120
aV3teku0252
p2122
aI34071
aI30277
aNaF5338.0
aF4243.0
aF7928.0
aF305.0
aF4533.0
aF4091.0
aF6316.0
aF1204.0
aF41.0
aF72.0
ag2117
aI3
ag2120
aV3teku0253
p2123
aI51030
aI36647
aNaF0.0
aF4588.0
aF7325.0
aF4140.0
aF6293.0
aF11010.0
aF9552.0
aF2043.0
aF251.0
aF5828.0
aVTeam \u3057\u308d\u3046\u3055\u304e
p2124
aI3
ag15
(S'\x07\xdf\x0b\x01'
p2125
tp2126
Rp2127
aV3teku0254
p2128
aI25832
aI28328
aNaF5374.0
aF2406.0
aF2106.0
aF1862.0
aF4994.0
aF3932.0
aF3369.0
aF113.0
aF204.0
aF1472.0
ag2124
aI3
ag2127
aV3teku0255
p2129
aI0
aI0
aNaF0.0
aF0.0
aF0.0
aF0.0
aF0.0
aF0.0
aF0.0
aF0.0
aF0.0
aF0.0
ag2124
aI3
ag2127
aV3teku0256
p2130
aI0
aI0
aNaF0.0
aF0.0
aF0.0
aF0.0
aF0.0
aF0.0
aF0.0
aF0.0
aF0.0
aF0.0
aV\u306a\u30fc\u307f
p2131
aI1
ag15
(S'\x07\xdf\x0b\x01'
p2132
tp2133
Rp2134
aV3teku0258
p2135
aI58039
aI43130
aNaF1086.0
aF11323.0
aF6882.0
aF8654.0
aF7338.0
aF10772.0
aF1455.0
aF3912.0
aF1075.0
aF5542.0
aV\u30b7\u30b2\u30aa
p2136
aI1
ag15
(S'\x07\xdf\x0b\x01'
p2137
tp2138
Rp2139
aV3teku0259
p2140
aI116035
aI90237
aI01
aF7256.0
aF11041.0
aF10243.0
aF29281.0
aF2916.0
aF6032.0
aF6665.0
aF9572.0
aF4530.0
aF28499.0
aV\u30d2\u30ed\u30e6\u30ad_3
p2141
aI1
ag15
(S'\x07\xdf\x0b\x01'
p2142
tp2143
Rp2144
aV3teku0260
p2145
aI0
aI0
aNaF0.0
aF0.0
aF0.0
aF0.0
aF0.0
aF0.0
aF0.0
aF0.0
aF0.0
aF0.0
aV\u6b69\u3051\u308b\u559c\u3073\u3092\u611f\u8b1d\u3059\u308b\u4eba
p2146
aI1
ag15
(S'\x07\xdf\x0b\x01'
p2147
tp2148
Rp2149
aV3teku0261
p2150
aI113599
aI87893
aI01
aF13364.0
aF13873.0
aF17536.0
aF9816.0
aF12036.0
aF6882.0
aF14013.0
aF11720.0
aF3079.0
aF11280.0
aV\u671d\u65e5A
p2151
aI1
ag15
(S'\x07\xdf\x0b\x01'
p2152
tp2153
Rp2154
aV3teku0262
p2155
aI0
aI0
aNaF0.0
aF0.0
aF0.0
aF0.0
aF0.0
aF0.0
aF0.0
aF0.0
aF0.0
aF0.0
aVASA-B
p2156
aI1
ag15
(S'\x07\xdf\x0b\x01'
p2157
tp2158
Rp2159
aV3teku0263
p2160
aI0
aI0
aNaF0.0
aF0.0
aF0.0
aF0.0
aF0.0
aF0.0
aF0.0
aF0.0
aF0.0
aF0.0
aV\u30c8\u30c3\u30c6\u30a3\u30fc\u30ba
p2161
aI1
ag15
(S'\x07\xdf\x0b\x01'
p2162
tp2163
Rp2164
aV3teku0264
p2165
aI0
aI0
aNaF0.0
aF0.0
aF0.0
aF0.0
aF0.0
aF0.0
aF0.0
aF0.0
aF0.0
aF0.0
aV\u30e8\u30b5\u30e4\u30f3
p2166
aI1
ag15
(S'\x07\xdf\x0b\x01'
p2167
tp2168
Rp2169
aV3teku0265
p2170
aI0
aI0
aNaF0.0
aF0.0
aF0.0
aF0.0
aF0.0
aF0.0
aF0.0
aF0.0
aF0.0
aF0.0
aVThe\u2606\u307e\u307f\u304d
p2171
aI3
ag15
(S'\x07\xdf\x0b\x01'
p2172
tp2173
Rp2174
aV3teku0266
p2175
aI52477
aI47478
aI01
aF22150.0
aF1189.0
aF6712.0
aF3155.0
aF6178.0
aF4773.0
aF3957.0
aF334.0
aF1423.0
aF2606.0
ag2171
aI3
ag2174
aV3teku0267
p2176
aI81613
aI59636
aI01
aF25303.0
aF6568.0
aF7675.0
aF14631.0
aF4101.0
aF14913.0
aF5732.0
aF296.0
aF669.0
aF1725.0
ag2171
aI3
ag2174
aV3teku0268
p2177
aI81293
aI54326
aI01
aF26652.0
aF3140.0
aF11292.0
aF8102.0
aF5874.0
aF6845.0
aF7085.0
aF460.0
aF3298.0
aF8545.0
aV\u3042\u3044\u3059\uff15\u500b\u76ee
p2178
aI5
ag15
(S'\x07\xdf\x0b\x01'
p2179
tp2180
Rp2181
aV3teku0269
p2182
aI85923
aI58502
aNaF3458.0
aF3829.0
aF10975.0
aF4844.0
aF9111.0
aF13003.0
aF7577.0
aF26655.0
aF2473.0
aF3998.0
ag2178
aI5
ag2181
aV3teku0270
p2183
aI0
aI0
aNaF0.0
aF0.0
aF0.0
aF0.0
aF0.0
aF0.0
aF0.0
aF0.0
aF0.0
aF0.0
ag2178
aI5
ag2181
aV3teku0271
p2184
aI68075
aI49412
aNaF4447.0
aF7042.0
aF5259.0
aF6436.0
aF7674.0
aF13876.0
aF4426.0
aF8172.0
aF5126.0
aF5617.0
ag2178
aI5
ag2181
aV3teku0272
p2185
aI39683
aI27695
aNaF2285.0
aF3317.0
aF5402.0
aF7492.0
aF3728.0
aF4211.0
aF2203.0
aF2363.0
aF920.0
aF7762.0
ag2178
aI5
ag2181
aV3teku0273
p2186
aI69098
aI48517
aNaF3410.0
aF8459.0
aF7933.0
aF8598.0
aF5530.0
aF11657.0
aF5898.0
aF7325.0
aF7390.0
aF2898.0
aV\u8fd1\u5927\u5927\u5b66\u9662
p2187
aI5
ag15
(S'\x07\xdf\x0b\x01'
p2188
tp2189
Rp2190
aV3teku0274
p2191
aI59400
aI41204
aNaF11465.0
aF101.0
aF315.0
aF1878.0
aF9279.0
aF7352.0
aF9851.0
aF4880.0
aF8629.0
aF5650.0
ag2187
aI5
ag2190
aV3teku0275
p2192
aI141617
aI93930
aNaF2205.0
aF16193.0
aF24744.0
aF12808.0
aF19823.0
aF17979.0
aF18349.0
aF7723.0
aF11865.0
aF9928.0
ag2187
aI5
ag2190
aV3teku0276
p2193
aI56959
aI42911
aNaF65.0
aF4787.0
aF7025.0
aF17258.0
aF2790.0
aF6511.0
aF7378.0
aF132.0
aF4142.0
aF6871.0
ag2187
aI5
ag2190
aV3teku0277
p2194
aI59468
aI41605
aNaF0.0
aF5353.0
aF6367.0
aF3280.0
aF5855.0
aF4316.0
aF307.0
aF268.0
aF7914.0
aF25808.0
ag2187
aI5
ag2190
aV3teku0278
p2195
aI62473
aI43004
aNaF1066.0
aF0.0
aF16294.0
aF7562.0
aF0.0
aF10829.0
aF30.0
aF4383.0
aF10292.0
aF12017.0
aV\u8fd1\u5927MRF
p2196
aI5
ag15
(S'\x07\xdf\x0b\x01'
p2197
tp2198
Rp2199
aV3teku0279
p2200
aI52994
aI39080
aNaF6335.0
aF22341.0
aF12437.0
aF0.0
aF0.0
aF524.0
aF8597.0
aF2760.0
aF0.0
aF0.0
ag2196
aI5
ag2199
aV3teku0280
p2201
aI128453
aI94206
aNaF13157.0
aF25590.0
aF19495.0
aF29398.0
aF3989.0
aF12908.0
aF8359.0
aF12684.0
aF2873.0
aF0.0
ag2196
aI5
ag2199
aV3teku0281
p2202
aI57751
aI43383
aNaF2292.0
aF6057.0
aF14387.0
aF8971.0
aF5627.0
aF8616.0
aF685.0
aF0.0
aF3794.0
aF7322.0
ag2196
aI5
ag2199
aV3teku0282
p2203
aI43516
aI34973
aNaF7757.0
aF8546.0
aF9311.0
aF8012.0
aF4159.0
aF678.0
aF0.0
aF4403.0
aF650.0
aF0.0
ag2196
aI5
ag2199
aV3teku0283
p2204
aI58179
aI35915
aNaF4543.0
aF14721.0
aF4148.0
aF3415.0
aF12240.0
aF8937.0
aF1268.0
aF0.0
aF0.0
aF8907.0
aV\u8fd1\u5927\u30ad\u30e5\u30fc\u30d4\u30fc
p2205
aI5
ag15
(S'\x07\xdf\x0b\x01'
p2206
tp2207
Rp2208
aV3teku0284
p2209
aI34610
aI25712
aNaF0.0
aF0.0
aF0.0
aF0.0
aF0.0
aF0.0
aF19003.0
aF0.0
aF1524.0
aF14083.0
ag2205
aI5
ag2208
aV3teku0285
p2210
aI57470
aI43231
aNaF3504.0
aF4829.0
aF2541.0
aF12876.0
aF701.0
aF7132.0
aF10071.0
aF2102.0
aF8967.0
aF4747.0
ag2205
aI5
ag2208
aV3teku0286
p2211
aI96376
aI66087
aNaF18524.0
aF18583.0
aF13776.0
aF15358.0
aF15642.0
aF0.0
aF6683.0
aF880.0
aF5731.0
aF1199.0
ag2205
aI5
ag2208
aV3teku0287
p2212
aI30617
aI22838
aNaF19181.0
aF233.0
aF11203.0
aF0.0
aF0.0
aF0.0
aF0.0
aF0.0
aF0.0
aF0.0
ag2205
aI5
ag2208
aV3teku0288
p2213
aI0
aI0
aNaF0.0
aF0.0
aF0.0
aF0.0
aF0.0
aF0.0
aF0.0
aF0.0
aF0.0
aF0.0
aV\u8fd1\u5927@\u904b\u52d5\u4e0d\u8db3
p2214
aI3
ag15
(S'\x07\xdf\x0b\x01'
p2215
tp2216
Rp2217
aV3teku0289
p2218
aI78044
aI61750
aNaF14700.0
aF4980.0
aF10022.0
aF2805.0
aF7845.0
aF6514.0
aF11863.0
aF5806.0
aF11644.0
aF1865.0
ag2214
aI3
ag2217
aV3teku0290
p2219
aI69958
aI48058
aNaF9062.0
aF10369.0
aF14859.0
aF3681.0
aF11658.0
aF8553.0
aF5520.0
aF1160.0
aF2825.0
aF2271.0
ag2214
aI3
ag2217
aV3teku0291
p2220
aI35614
aI34515
aNaF6392.0
aF9769.0
aF5066.0
aF6161.0
aF708.0
aF358.0
aF9.0
aF0.0
aF6733.0
aF418.0
aV\u308a\u304f\u3068\u30de\u30de
p2221
aI1
ag15
(S'\x07\xdf\x0b\x01'
p2222
tp2223
Rp2224
aV3teku0292
p2225
aI96453
aI77140
aI01
aF12672.0
aF6342.0
aF21173.0
aF6929.0
aF5348.0
aF13015.0
aF7877.0
aF4677.0
aF5009.0
aF13411.0
aV\u3086\u3046\u3068\u30d1\u30d1
p2226
aI1
ag15
(S'\x07\xdf\x0b\x01'
p2227
tp2228
Rp2229
aV3teku0293
p2230
aI95068
aI70012
aI01
aF7127.0
aF10868.0
aF5482.0
aF13285.0
aF15576.0
aF14589.0
aF4760.0
aF2298.0
aF9921.0
aF11162.0
aV\u3068\u3082\u3061\u3083\u3093_3
p2231
aI1
ag15
(S'\x07\xdf\x0b\x01'
p2232
tp2233
Rp2234
aV3teku0294
p2235
aI56846
aI42500
aNaF2533.0
aF5138.0
aF3833.0
aF3398.0
aF1820.0
aF13408.0
aF32.0
aF20919.0
aF3749.0
aF2016.0
aV\u30b7\u30d9\u30ea\u30a2\u30f3
p2236
aI3
ag15
(S'\x07\xdf\x0b\x01'
p2237
tp2238
Rp2239
aV3teku0295
p2240
aI0
aI0
aNaF0.0
aF0.0
aF0.0
aF0.0
aF0.0
aF0.0
aF0.0
aF0.0
aF0.0
aF0.0
ag2236
aI3
ag2239
aV3teku0296
p2241
aI0
aI0
aNaF0.0
aF0.0
aF0.0
aF0.0
aF0.0
aF0.0
aF0.0
aF0.0
aF0.0
aF0.0
ag2236
aI3
ag2239
aV3teku0297
p2242
aI0
aI0
aNaF0.0
aF0.0
aF0.0
aF0.0
aF0.0
aF0.0
aF0.0
aF0.0
aF0.0
aF0.0
aV\u307e\u30b5\u30eb\u3055\u3093\u305d\u306e\uff11_3
p2243
aI3
ag15
(S'\x07\xdf\x0b\x01'
p2244
tp2245
Rp2246
aV3teku0298
p2247
aI66917
aI53956
aNaF9290.0
aF1077.0
aF10325.0
aF4949.0
aF1000.0
aF12797.0
aF4371.0
aF13212.0
aF8818.0
aF1078.0
ag2243
aI3
ag2246
aV3teku0299
p2248
aI44617
aI40910
aNaF1887.0
aF3241.0
aF5606.0
aF5536.0
aF5813.0
aF4276.0
aF8143.0
aF51.0
aF3678.0
aF6386.0
ag2243
aI3
ag2246
aV3teku0300
p2249
aI50346
aI33623
aNaF1388.0
aF4644.0
aF6106.0
aF3447.0
aF5937.0
aF7781.0
aF9262.0
aF1539.0
aF4019.0
aF6223.0
aV\u307e\u30b5\u30eb\u3055\u3093\u305d\u306e\uff12_3
p2250
aI3
ag15
(S'\x07\xdf\x0b\x01'
p2251
tp2252
Rp2253
aV3teku0301
p2254
aI44489
aI32365
aNaF900.0
aF1027.0
aF8948.0
aF2837.0
aF4701.0
aF1791.0
aF10560.0
aF7398.0
aF1774.0
aF4553.0
ag2250
aI3
ag2253
aV3teku0302
p2255
aI61347
aI48176
aNaF3147.0
aF4992.0
aF4669.0
aF5005.0
aF8379.0
aF4736.0
aF13639.0
aF2549.0
aF6431.0
aF7800.0
ag2250
aI3
ag2253
aV3teku0303
p2256
aI73588
aI52932
aNaF19350.0
aF3575.0
aF4567.0
aF8396.0
aF7639.0
aF7284.0
aF6932.0
aF1359.0
aF6830.0
aF7656.0
aV\u3077\u3046
p2257
aI1
ag15
(S'\x07\xdf\x0b\x01'
p2258
tp2259
Rp2260
aV3teku0304
p2261
aI0
aI0
aNaF0.0
aF0.0
aF0.0
aF0.0
aF0.0
aF0.0
aF0.0
aF0.0
aF0.0
aF0.0
aV\u3072\u3068\u308a\u3067\u3067\u304d\u308b\u3082\u3093
p2262
aI1
ag15
(S'\x07\xdf\x0b\x01'
p2263
tp2264
Rp2265
aV3teku0305
p2266
aI86384
aI67221
aI01
aF6835.0
aF10800.0
aF4320.0
aF6936.0
aF8944.0
aF11520.0
aF9171.0
aF16065.0
aF8637.0
aF3156.0
aV\u30bb\u30c7\u30fc\u30b9
p2267
aI5
ag15
(S'\x07\xdf\x0b\x01'
p2268
tp2269
Rp2270
aV3teku0306
p2271
aI47648
aI34525
aNaF0.0
aF6798.0
aF6200.0
aF7706.0
aF5133.0
aF3143.0
aF4041.0
aF2208.0
aF4744.0
aF7675.0
ag2267
aI5
ag2270
aV3teku0307
p2272
aI71695
aI51294
aNaF7056.0
aF2826.0
aF1899.0
aF2818.0
aF1150.0
aF13822.0
aF15102.0
aF18793.0
aF5311.0
aF2918.0
ag2267
aI5
ag2270
aV3teku0308
p2273
aI95388
aI66848
aNaF9254.0
aF15720.0
aF2938.0
aF6781.0
aF6955.0
aF12358.0
aF14718.0
aF10599.0
aF9269.0
aF6796.0
ag2267
aI5
ag2270
aV3teku0309
p2274
aI79476
aI57745
aNaF1207.0
aF10505.0
aF12380.0
aF5576.0
aF12602.0
aF6829.0
aF3410.0
aF12482.0
aF6541.0
aF7944.0
ag2267
aI5
ag2270
aV3teku0310
p2275
aI32501
aI23067
aNaF2744.0
aF1626.0
aF1634.0
aF2454.0
aF3895.0
aF2103.0
aF6160.0
aF554.0
aF7793.0
aF3538.0
aV\u30b9\u30b3\u30fc\u30d7
p2276
aI5
ag15
(S'\x07\xdf\x0b\x01'
p2277
tp2278
Rp2279
aV3teku0311
p2280
aI0
aI0
aNaF0.0
aF0.0
aF0.0
aF0.0
aF0.0
aF0.0
aF0.0
aF0.0
aF0.0
aF0.0
ag2276
aI5
ag2279
aV3teku0312
p2281
aI50936
aI37695
aNaF3461.0
aF3220.0
aF5735.0
aF13489.0
aF5426.0
aF5923.0
aF385.0
aF2173.0
aF9706.0
aF1418.0
ag2276
aI5
ag2279
aV3teku0313
p2282
aI77302
aI58340
aNaF10584.0
aF2659.0
aF9227.0
aF10877.0
aF6834.0
aF7008.0
aF10446.0
aF6324.0
aF7307.0
aF6036.0
ag2276
aI5
ag2279
aV3teku0314
p2283
aI69672
aI49613
aNaF3455.0
aF9067.0
aF4809.0
aF6922.0
aF9138.0
aF9062.0
aF8771.0
aF7675.0
aF1307.0
aF9466.0
ag2276
aI5
ag2279
aV3teku0315
p2284
aI112280
aI81058
aNaF2291.0
aF5713.0
aF17772.0
aF13539.0
aF20398.0
aF15249.0
aF9044.0
aF16893.0
aF5132.0
aF6249.0
aV\u3051\u3082\u3063\u3061
p2285
aI5
ag15
(S'\x07\xdf\x0b\x01'
p2286
tp2287
Rp2288
aV3teku0316
p2289
aI30332
aI23566
aNaF206.0
aF3826.0
aF5574.0
aF5773.0
aF4574.0
aF4086.0
aF2783.0
aF3048.0
aF52.0
aF410.0
ag2285
aI5
ag2288
aV3teku0317
p2290
aI80362
aI51015
aNaF10625.0
aF3064.0
aF12329.0
aF6379.0
aF8890.0
aF6602.0
aF4244.0
aF2346.0
aF3877.0
aF22006.0
ag2285
aI5
ag2288
aV3teku0318
p2291
aI72863
aI56230
aNaF4152.0
aF5687.0
aF8076.0
aF9522.0
aF6555.0
aF9419.0
aF6229.0
aF7824.0
aF9224.0
aF6175.0
ag2285
aI5
ag2288
aV3teku0319
p2292
aI64579
aI45344
aNaF6765.0
aF5742.0
aF1858.0
aF3892.0
aF4323.0
aF10362.0
aF8779.0
aF4302.0
aF8187.0
aF10369.0
ag2285
aI5
ag2288
aV3teku0320
p2293
aI61112
aI45108
aNaF985.0
aF6931.0
aF2096.0
aF3911.0
aF7333.0
aF7449.0
aF727.0
aF7822.0
aF10035.0
aF13823.0
aV\u30b9\u30d1\u30a4\u30b9
p2294
aI5
ag15
(S'\x07\xdf\x0b\x01'
p2295
tp2296
Rp2297
aV3teku0321
p2298
aI0
aI0
aNaF0.0
aF0.0
aF0.0
aF0.0
aF0.0
aF0.0
aF0.0
aF0.0
aF0.0
aF0.0
ag2294
aI5
ag2297
aV3teku0322
p2299
aI62944
aI45127
aNaF6000.0
aF5897.0
aF11493.0
aF9833.0
aF7746.0
aF3939.0
aF5574.0
aF127.0
aF6726.0
aF5609.0
ag2294
aI5
ag2297
aV3teku0323
p2300
aI117951
aI92660
aNaF10016.0
aF8218.0
aF7939.0
aF1945.0
aF15740.0
aF12609.0
aF10741.0
aF8802.0
aF24554.0
aF17387.0
ag2294
aI5
ag2297
aV3teku0324
p2301
aI74878
aI54367
aNaF8206.0
aF7579.0
aF9755.0
aF4738.0
aF6302.0
aF11936.0
aF3626.0
aF1242.0
aF15095.0
aF6399.0
ag2294
aI5
ag2297
aV3teku0325
p2302
aI41059
aI29916
aNaF0.0
aF0.0
aF6719.0
aF4902.0
aF3244.0
aF8557.0
aF9618.0
aF1559.0
aF1009.0
aF5451.0
aV\u30df\u30c3\u30c9\u30fb\u30ad\u30e9\u30fc
p2303
aI5
ag15
(S'\x07\xdf\x0b\x01'
p2304
tp2305
Rp2306
aV3teku0326
p2307
aI34134
aI27480
aNaF1163.0
aF2196.0
aF12350.0
aF14408.0
aF1899.0
aF1295.0
aF0.0
aF0.0
aF823.0
aF0.0
ag2303
aI5
ag2306
aV3teku0327
p2308
aI83870
aI64741
aNaF10325.0
aF10737.0
aF8639.0
aF9609.0
aF8471.0
aF7114.0
aF14213.0
aF547.0
aF2672.0
aF11543.0
ag2303
aI5
ag2306
aV3teku0328
p2309
aI63869
aI46269
aNaF5418.0
aF7907.0
aF6062.0
aF3195.0
aF4636.0
aF4893.0
aF6180.0
aF6157.0
aF9368.0
aF10053.0
ag2303
aI5
ag2306
aV3teku0329
p2310
aI44321
aI32220
aNaF6241.0
aF7320.0
aF362.0
aF9635.0
aF11086.0
aF547.0
aF455.0
aF78.0
aF94.0
aF8503.0
ag2303
aI5
ag2306
aV3teku0330
p2311
aI75717
aI55567
aNaF8047.0
aF9453.0
aF6526.0
aF1361.0
aF11614.0
aF14790.0
aF809.0
aF5877.0
aF10362.0
aF6878.0
aV\u30dc\u30c7\u30a3
p2312
aI5
ag15
(S'\x07\xdf\x0b\x01'
p2313
tp2314
Rp2315
aV3teku0331
p2316
aI0
aI0
aNaF0.0
aF0.0
aF0.0
aF0.0
aF0.0
aF0.0
aF0.0
aF0.0
aF0.0
aF0.0
ag2312
aI5
ag2315
aV3teku0332
p2317
aI98563
aI70844
aNaF10603.0
aF6814.0
aF11040.0
aF15156.0
aF7897.0
aF6324.0
aF12948.0
aF8453.0
aF10558.0
aF8770.0
ag2312
aI5
ag2315
aV3teku0333
p2318
aI55816
aI41162
aNaF4873.0
aF1494.0
aF2845.0
aF7148.0
aF5856.0
aF5394.0
aF9109.0
aF2641.0
aF7149.0
aF9307.0
ag2312
aI5
ag2315
aV3teku0334
p2319
aI112162
aI81213
aNaF5996.0
aF15743.0
aF7934.0
aF13755.0
aF13487.0
aF15641.0
aF13447.0
aF7521.0
aF5155.0
aF13483.0
ag2312
aI5
ag2315
aV3teku0335
p2320
aI68053
aI52032
aNaF7480.0
aF6092.0
aF6881.0
aF5212.0
aF5114.0
aF9818.0
aF3081.0
aF8383.0
aF5492.0
aF10500.0
aV\u30d9\u30fc\u30b9
p2321
aI5
ag15
(S'\x07\xdf\x0b\x01'
p2322
tp2323
Rp2324
aV3teku0336
p2325
aI75287
aI49332
aNaF11740.0
aF7052.0
aF9254.0
aF6524.0
aF5083.0
aF7547.0
aF8890.0
aF5368.0
aF7333.0
aF6496.0
ag2321
aI5
ag2324
aV3teku0337
p2326
aI61548
aI44165
aNaF6964.0
aF5225.0
aF6230.0
aF7784.0
aF1797.0
aF5775.0
aF8377.0
aF4808.0
aF7809.0
aF6779.0
ag2321
aI5
ag2324
aV3teku0338
p2327
aI37386
aI39245
aNaF2713.0
aF4389.0
aF954.0
aF1966.0
aF5218.0
aF3961.0
aF3238.0
aF4038.0
aF5661.0
aF5248.0
ag2321
aI5
ag2324
aV3teku0339
p2328
aI0
aI0
aNaF0.0
aF0.0
aF0.0
aF0.0
aF0.0
aF0.0
aF0.0
aF0.0
aF0.0
aF0.0
ag2321
aI5
ag2324
aV3teku0340
p2329
aI68708
aI49212
aNaF9325.0
aF13580.0
aF9643.0
aF8358.0
aF6449.0
aF7188.0
aF0.0
aF0.0
aF1784.0
aF12381.0
aV\u30b5\u30f3\u30ef\u6280\u7814\uff0b\uff11
p2330
aI3
ag15
(S'\x07\xdf\x0b\x01'
p2331
tp2332
Rp2333
aV3teku0341
p2334
aI34843
aI24417
aNaF6064.0
aF3880.0
aF629.0
aF1063.0
aF2510.0
aF3930.0
aF4833.0
aF4992.0
aF1633.0
aF5309.0
ag2330
aI3
ag2333
aV3teku0342
p2335
aI103700
aI95131
aNaF9266.0
aF12977.0
aF10063.0
aF13025.0
aF12621.0
aF10316.0
aF12845.0
aF3860.0
aF8757.0
aF9970.0
ag2330
aI3
ag2333
aV3teku0343
p2336
aI34724
aI25071
aNaF4538.0
aF5882.0
aF3249.0
aF3611.0
aF2999.0
aF4836.0
aF3250.0
aF2289.0
aF677.0
aF3393.0
aV\u6b63\u30c1\u30fc\u30e0
p2337
aI3
ag15
(S'\x07\xdf\x0b\x01'
p2338
tp2339
Rp2340
aV3teku0344
p2341
aI104597
aI73879
aI01
aF6215.0
aF7833.0
aF8881.0
aF14899.0
aF10865.0
aF8912.0
aF12109.0
aF10062.0
aF8664.0
aF16157.0
ag2337
aI3
ag2340
aV3teku0345
p2342
aI82000
aI58984
aI01
aF4600.0
aF6085.0
aF8526.0
aF12566.0
aF11150.0
aF6505.0
aF9062.0
aF6184.0
aF7602.0
aF9720.0
ag2337
aI3
ag2340
aV3teku0346
p2343
aI40574
aI27850
aI01
aF4540.0
aF4310.0
aF5115.0
aF3515.0
aF2974.0
aF2646.0
aF3081.0
aF2250.0
aF4770.0
aF7373.0
aV\u30d4\u30e7\u30f3\u30fb\u30d6\u30fc\u30d6\u30fc\u30d6\u30fc
p2344
aI5
ag15
(S'\x07\xdf\x0b\x01'
p2345
tp2346
Rp2347
aV3teku0347
p2348
aI0
aI0
aNaF0.0
aF0.0
aF0.0
aF0.0
aF0.0
aF0.0
aF0.0
aF0.0
aF0.0
aF0.0
ag2344
aI5
ag2347
aV3teku0348
p2349
aI72328
aI51623
aNaF6840.0
aF7485.0
aF6644.0
aF6061.0
aF6209.0
aF12938.0
aF5329.0
aF7550.0
aF6211.0
aF7061.0
ag2344
aI5
ag2347
aV3teku0349
p2350
aI0
aI0
aNaF0.0
aF0.0
aF0.0
aF0.0
aF0.0
aF0.0
aF0.0
aF0.0
aF0.0
aF0.0
ag2344
aI5
ag2347
aV3teku0350
p2351
aI54144
aI39862
aNaF3117.0
aF5933.0
aF4926.0
aF6244.0
aF5396.0
aF9545.0
aF3469.0
aF5019.0
aF4615.0
aF5880.0
ag2344
aI5
ag2347
aV3teku0351
p2352
aI0
aI0
aNaF0.0
aF0.0
aF0.0
aF0.0
aF0.0
aF0.0
aF0.0
aF0.0
aF0.0
aF0.0
aV\u30de\u30fc\u30e1\u30fc\u30c9
p2353
aI5
ag15
(S'\x07\xdf\x0b\x01'
p2354
tp2355
Rp2356
aV3teku0352
p2357
aI0
aI0
aNaF0.0
aF0.0
aF0.0
aF0.0
aF0.0
aF0.0
aF0.0
aF0.0
aF0.0
aF0.0
ag2353
aI5
ag2356
aV3teku0353
p2358
aI0
aI0
aNaF0.0
aF0.0
aF0.0
aF0.0
aF0.0
aF0.0
aF0.0
aF0.0
aF0.0
aF0.0
ag2353
aI5
ag2356
aV3teku0354
p2359
aI0
aI0
aNaF0.0
aF0.0
aF0.0
aF0.0
aF0.0
aF0.0
aF0.0
aF0.0
aF0.0
aF0.0
ag2353
aI5
ag2356
aV3teku0355
p2360
aI0
aI0
aNaF0.0
aF0.0
aF0.0
aF0.0
aF0.0
aF0.0
aF0.0
aF0.0
aF0.0
aF0.0
ag2353
aI5
ag2356
aV3teku0356
p2361
aI0
aI0
aNaF0.0
aF0.0
aF0.0
aF0.0
aF0.0
aF0.0
aF0.0
aF0.0
aF0.0
aF0.0
aV\u7fe1\u7fe0
p2362
aI3
ag15
(S'\x07\xdf\x0b\x01'
p2363
tp2364
Rp2365
aV3teku0357
p2366
aI92912
aI63478
aNaF5243.0
aF5804.0
aF9752.0
aF5682.0
aF15550.0
aF4429.0
aF5228.0
aF886.0
aF17213.0
aF23125.0
ag2362
aI3
ag2365
aV3teku0358
p2367
aI44681
aI30703
aNaF6887.0
aF1439.0
aF4987.0
aF2681.0
aF8521.0
aF1487.0
aF6107.0
aF945.0
aF8431.0
aF3196.0
ag2362
aI3
ag2365
aV3teku0359
p2368
aI47289
aI33128
aNaF4073.0
aF11723.0
aF4083.0
aF3779.0
aF5029.0
aF5754.0
aF2892.0
aF472.0
aF4201.0
aF5283.0
aV\u5065\u3084\u304b\u30af\u30e9\u30d6_3
p2369
aI5
ag15
(S'\x07\xdf\x0b\x01'
p2370
tp2371
Rp2372
aV3teku0360
p2373
aI0
aI0
aNaF0.0
aF0.0
aF0.0
aF0.0
aF0.0
aF0.0
aF0.0
aF0.0
aF0.0
aF0.0
ag2369
aI5
ag2372
aV3teku0361
p2374
aI0
aI0
aNaF0.0
aF0.0
aF0.0
aF0.0
aF0.0
aF0.0
aF0.0
aF0.0
aF0.0
aF0.0
ag2369
aI5
ag2372
aV3teku0362
p2375
aI0
aI0
aNaF0.0
aF0.0
aF0.0
aF0.0
aF0.0
aF0.0
aF0.0
aF0.0
aF0.0
aF0.0
ag2369
aI5
ag2372
aV3teku0363
p2376
aI0
aI0
aNaF0.0
aF0.0
aF0.0
aF0.0
aF0.0
aF0.0
aF0.0
aF0.0
aF0.0
aF0.0
ag2369
aI5
ag2372
aV3teku0364
p2377
aI0
aI0
aNaF0.0
aF0.0
aF0.0
aF0.0
aF0.0
aF0.0
aF0.0
aF0.0
aF0.0
aF0.0
aV\u3042\u3054\u3042\u3054\u30ad\u30e3\u30f3\u30c7\u30a3\u30fc\u30ba
p2378
aI3
ag15
(S'\x07\xdf\x0b\x01'
p2379
tp2380
Rp2381
aV3teku0365
p2382
aI51578
aI35329
aI00
aF1066.0
aF2143.0
aF10570.0
aF4729.0
aF8459.0
aF3750.0
aF5985.0
aF5205.0
aF3262.0
aF6409.0
ag2378
aI3
ag2381
aV3teku0366
p2383
aI46216
aI36635
aI00
aF5207.0
aF3020.0
aF11829.0
aF5202.0
aF2177.0
aF2759.0
aF6487.0
aF6621.0
aF1155.0
aF1759.0
ag2378
aI3
ag2381
aV3teku0367
p2384
aI10940
aI7396
aI00
aF98.0
aF828.0
aF817.0
aF758.0
aF399.0
aF486.0
aF5727.0
aF273.0
aF478.0
aF1076.0
aV\u7f8e\u307e\u3058\u30872015
p2385
aI3
ag15
(S'\x07\xdf\x0b\x01'
p2386
tp2387
Rp2388
aV3teku0368
p2389
aI89441
aI70863
aI01
aF12263.0
aF3346.0
aF11554.0
aF6958.0
aF9763.0
aF3506.0
aF11525.0
aF10657.0
aF9169.0
aF10700.0
ag2385
aI3
ag2388
aV3teku0369
p2390
aI97792
aI75319
aI01
aF23960.0
aF5040.0
aF14312.0
aF5125.0
aF6281.0
aF6699.0
aF9174.0
aF10591.0
aF6275.0
aF10335.0
ag2385
aI3
ag2388
aV3teku0370
p2391
aI62502
aI44295
aI01
aF5713.0
aF6754.0
aF8133.0
aF6461.0
aF10540.0
aF6870.0
aF3892.0
aF1543.0
aF5139.0
aF7457.0
aV\u3068\u308a\u3042\u3048\u305a\u30fc
p2392
aI5
ag15
(S'\x07\xdf\x0b\x01'
p2393
tp2394
Rp2395
aV3teku0371
p2396
aI0
aI0
aNaF0.0
aF0.0
aF0.0
aF0.0
aF0.0
aF0.0
aF0.0
aF0.0
aF0.0
aF0.0
ag2392
aI5
ag2395
aV3teku0372
p2397
aI0
aI0
aNaF0.0
aF0.0
aF0.0
aF0.0
aF0.0
aF0.0
aF0.0
aF0.0
aF0.0
aF0.0
ag2392
aI5
ag2395
aV3teku0373
p2398
aI52527
aI47658
aNaF3400.0
aF4235.0
aF6576.0
aF3271.0
aF4404.0
aF4457.0
aF5077.0
aF11251.0
aF6197.0
aF3659.0
ag2392
aI5
ag2395
aV3teku0374
p2399
aI0
aI0
aNaF0.0
aF0.0
aF0.0
aF0.0
aF0.0
aF0.0
aF0.0
aF0.0
aF0.0
aF0.0
ag2392
aI5
ag2395
aV3teku0375
p2400
aI0
aI0
aNaF0.0
aF0.0
aF0.0
aF0.0
aF0.0
aF0.0
aF0.0
aF0.0
aF0.0
aF0.0
aV\u3075\u304f\u3075\u304f\u305d\u306e\uff11
p2401
aI1
ag15
(S'\x07\xdf\x0b\x01'
p2402
tp2403
Rp2404
aV3teku0376
p2405
aI0
aI0
aNaF0.0
aF0.0
aF0.0
aF0.0
aF0.0
aF0.0
aF0.0
aF0.0
aF0.0
aF0.0
aV\u3075\u304f\u3075\u304f\u305d\u306e\uff12
p2406
aI1
ag15
(S'\x07\xdf\x0b\x01'
p2407
tp2408
Rp2409
aV3teku0377
p2410
aI0
aI0
aNaF0.0
aF0.0
aF0.0
aF0.0
aF0.0
aF0.0
aF0.0
aF0.0
aF0.0
aF0.0
aV\u3068\u3063\u3053\u3061\u3083\u3093
p2411
aI1
ag15
(S'\x07\xdf\x0b\x01'
p2412
tp2413
Rp2414
aV3teku0378
p2415
aI0
aI0
aNaF0.0
aF0.0
aF0.0
aF0.0
aF0.0
aF0.0
aF0.0
aF0.0
aF0.0
aF0.0
aVLOSAMi
p2416
aI3
ag15
(S'\x07\xdf\x0b\x01'
p2417
tp2418
Rp2419
aV3teku0379
p2420
aI0
aI0
aNaF0.0
aF0.0
aF0.0
aF0.0
aF0.0
aF0.0
aF0.0
aF0.0
aF0.0
aF0.0
ag2416
aI3
ag2419
aV3teku0380
p2421
aI65063
aI46378
aNaF8309.0
aF1679.0
aF12247.0
aF4874.0
aF6846.0
aF5369.0
aF8280.0
aF7992.0
aF3808.0
aF5659.0
ag2416
aI3
ag2419
aV3teku0381
p2422
aI52733
aI35255
aNaF3681.0
aF5564.0
aF6584.0
aF4171.0
aF7348.0
aF1142.0
aF3469.0
aF3930.0
aF10529.0
aF6315.0
aV\u30da\u30b3\u3061\u3083\u3093
p2423
aI1
ag15
(S'\x07\xdf\x0b\x01'
p2424
tp2425
Rp2426
aV3teku0382
p2427
aI62721
aI40710
aNaF3783.0
aF4143.0
aF7516.0
aF4076.0
aF8402.0
aF4043.0
aF10996.0
aF9090.0
aF3518.0
aF7154.0
aV\u30c1\u30fc\u30e0\u30fb\u30de\u30c4\u30bf\u30b1\u30fb\u30c7\u30e9\u30c3\u30af\u30b9
p2428
aI5
ag15
(S'\x07\xdf\x0b\x01'
p2429
tp2430
Rp2431
aV3teku0383
p2432
aI71657
aI60127
aNaF13992.0
aF6030.0
aF9544.0
aF6641.0
aF8374.0
aF2423.0
aF7443.0
aF714.0
aF4716.0
aF11780.0
ag2428
aI5
ag2431
aV3teku0384
p2433
aI86481
aI64562
aNaF12721.0
aF8838.0
aF17922.0
aF9368.0
aF6521.0
aF7200.0
aF12637.0
aF5352.0
aF5861.0
aF61.0
ag2428
aI5
ag2431
aV3teku0385
p2434
aI61391
aI40650
aNaF12089.0
aF1831.0
aF768.0
aF12581.0
aF704.0
aF6156.0
aF5639.0
aF16853.0
aF1594.0
aF3176.0
ag2428
aI5
ag2431
aV3teku0386
p2435
aI40267
aI31877
aNaF5905.0
aF4809.0
aF4633.0
aF4315.0
aF2888.0
aF3249.0
aF8496.0
aF601.0
aF2929.0
aF2442.0
ag2428
aI5
ag2431
aV3teku0387
p2436
aI70396
aI61573
aNaF16903.0
aF5259.0
aF9118.0
aF5693.0
aF5358.0
aF5705.0
aF9534.0
aF1619.0
aF5846.0
aF5361.0
aV\u6771\u91ce_3
p2437
aI3
ag15
(S'\x07\xdf\x0b\x01'
p2438
tp2439
Rp2440
aV3teku0388
p2441
aI48952
aI43951
aNaF12145.0
aF5312.0
aF2996.0
aF5134.0
aF3330.0
aF4125.0
aF41.0
aF2399.0
aF6701.0
aF6769.0
ag2437
aI3
ag2440
aV3teku0389
p2442
aI51248
aI36759
aNaF2760.0
aF4548.0
aF4573.0
aF5766.0
aF4711.0
aF4382.0
aF3680.0
aF6844.0
aF6461.0
aF7523.0
ag2437
aI3
ag2440
aV3teku0390
p2443
aI49493
aI40199
aNaF261.0
aF3855.0
aF3025.0
aF4223.0
aF2782.0
aF2659.0
aF4950.0
aF17904.0
aF3232.0
aF6602.0
aV\u3053\u3068\u306f\u306a
p2444
aI1
ag15
(S'\x07\xdf\x0b\x01'
p2445
tp2446
Rp2447
aV3teku0391
p2448
aI61380
aI47486
aNaF0.0
aF3266.0
aF4652.0
aF10152.0
aF2175.0
aF8405.0
aF21356.0
aF2778.0
aF1792.0
aF6804.0
aV\u307e\u3061\u4e2d\u6b69\u304d\u968a
p2449
aI5
ag15
(S'\x07\xdf\x0b\x01'
p2450
tp2451
Rp2452
aV3teku0392
p2453
aI42384
aI44885
aNaF4396.0
aF5092.0
aF9480.0
aF5208.0
aF8389.0
aF8203.0
aF1153.0
aF0.0
aF412.0
aF51.0
ag2449
aI5
ag2452
aV3teku0393
p2454
aI76808
aI61693
aNaF11383.0
aF6654.0
aF17227.0
aF13119.0
aF7295.0
aF8218.0
aF1915.0
aF2939.0
aF6539.0
aF1519.0
ag2449
aI5
ag2452
aV3teku0394
p2455
aI63088
aI48712
aNaF7290.0
aF6302.0
aF14595.0
aF10614.0
aF4786.0
aF7287.0
aF3395.0
aF164.0
aF5777.0
aF2878.0
ag2449
aI5
ag2452
aV3teku0395
p2456
aI29810
aI21691
aNaF734.0
aF5374.0
aF2428.0
aF1731.0
aF1780.0
aF3337.0
aF4135.0
aF2539.0
aF484.0
aF7268.0
ag2449
aI5
ag2452
aV3teku0396
p2457
aI50492
aI37534
aNaF10780.0
aF9092.0
aF4968.0
aF4798.0
aF2553.0
aF1840.0
aF5277.0
aF3147.0
aF2259.0
aF5778.0
aV\u5b64\u72ec\u306a\u8056\u9a0e\u58eb
p2458
aI1
ag15
(S'\x07\xdf\x0b\x01'
p2459
tp2460
Rp2461
aV3teku0397
p2462
aI85106
aI65846
aI01
aF7841.0
aF6049.0
aF11569.0
aF13773.0
aF11118.0
aF6116.0
aF8349.0
aF8602.0
aF2547.0
aF9142.0
aV\u30c1\u30fc\u30e0\u30fb\u305f\u306c\u304d
p2463
aI3
ag15
(S'\x07\xdf\x0b\x01'
p2464
tp2465
Rp2466
aV3teku0398
p2467
aI63258
aI58251
aNaF8909.0
aF3534.0
aF13527.0
aF8406.0
aF7523.0
aF7540.0
aF2720.0
aF0.0
aF5122.0
aF5977.0
ag2463
aI3
ag2466
aV3teku0399
p2468
aI60484
aI42470
aNaF2748.0
aF848.0
aF6755.0
aF15229.0
aF9336.0
aF1913.0
aF7255.0
aF1277.0
aF14034.0
aF1089.0
ag2463
aI3
ag2466
aV3teku0400
p2469
aI35671
aI32232
aNaF1607.0
aF182.0
aF3065.0
aF1255.0
aF1265.0
aF8592.0
aF8827.0
aF5232.0
aF1788.0
aF3858.0
aV\u305f\u304b\u3075\u307f_3
p2470
aI5
ag15
(S'\x07\xdf\x0b\x01'
p2471
tp2472
Rp2473
aV3teku0401
p2474
aI57786
aI41577
aI00
aF10592.0
aF6801.0
aF3706.0
aF6891.0
aF4389.0
aF3462.0
aF3805.0
aF4350.0
aF6801.0
aF6989.0
ag2470
aI5
ag2473
aV3teku0402
p2475
aI81835
aI54490
aI00
aF9175.0
aF20115.0
aF10557.0
aF5023.0
aF7621.0
aF13468.0
aF2161.0
aF3102.0
aF6684.0
aF3929.0
ag2470
aI5
ag2473
aV3teku0403
p2476
aI53898
aI39967
aI00
aF6897.0
aF3586.0
aF7491.0
aF2689.0
aF7085.0
aF5503.0
aF318.0
aF5396.0
aF6838.0
aF8095.0
ag2470
aI5
ag2473
aV3teku0404
p2477
aI64845
aI43837
aI00
aF817.0
aF6104.0
aF3747.0
aF4024.0
aF4424.0
aF7146.0
aF2906.0
aF21254.0
aF6735.0
aF7688.0
ag2470
aI5
ag2473
aV3teku0405
p2478
aI8082
aI12238
aI00
aF0.0
aF0.0
aF0.0
aF682.0
aF2966.0
aF303.0
aF0.0
aF0.0
aF1234.0
aF2897.0
aV\u5730\u5e95\u4eba_3
p2479
aI5
ag15
(S'\x07\xdf\x0b\x01'
p2480
tp2481
Rp2482
aV3teku0406
p2483
aI51156
aI38764
aNaF7088.0
aF3419.0
aF8072.0
aF7020.0
aF4827.0
aF9015.0
aF287.0
aF4397.0
aF6807.0
aF224.0
ag2479
aI5
ag2482
aV3teku0407
p2484
aI70641
aI52276
aNaF5590.0
aF2838.0
aF6763.0
aF10678.0
aF6767.0
aF7248.0
aF7380.0
aF5636.0
aF9790.0
aF7951.0
ag2479
aI5
ag2482
aV3teku0408
p2485
aI63429
aI43628
aNaF7999.0
aF10413.0
aF14642.0
aF9710.0
aF3872.0
aF1484.0
aF6903.0
aF8406.0
aF0.0
aF0.0
ag2479
aI5
ag2482
aV3teku0409
p2486
aI88225
aI70520
aNaF5291.0
aF8710.0
aF8318.0
aF10996.0
aF16223.0
aF6880.0
aF8267.0
aF11359.0
aF10086.0
aF2095.0
ag2479
aI5
ag2482
aV3teku0410
p2487
aI40983
aI29278
aNaF0.0
aF0.0
aF0.0
aF0.0
aF2198.0
aF18813.0
aF6983.0
aF814.0
aF2278.0
aF9897.0
aV\uff24\uff45\uff45\uff50 \uff37\uff41\uff4c\uff4b\uff45\uff52
p2488
aI5
ag15
(S'\x07\xdf\x0b\x01'
p2489
tp2490
Rp2491
aV3teku0411
p2492
aI102519
aI70485
aI00
aF18717.0
aF10694.0
aF14300.0
aF3868.0
aF11210.0
aF8336.0
aF13137.0
aF2137.0
aF10729.0
aF9391.0
ag2488
aI5
ag2491
aV3teku0412
p2493
aI0
aI0
aI00
aF0.0
aF0.0
aF0.0
aF0.0
aF0.0
aF0.0
aF0.0
aF0.0
aF0.0
aF0.0
ag2488
aI5
ag2491
aV3teku0413
p2494
aI61479
aI40911
aI00
aF2471.0
aF3449.0
aF10946.0
aF8189.0
aF11616.0
aF7711.0
aF3652.0
aF235.0
aF8246.0
aF4964.0
ag2488
aI5
ag2491
aV3teku0414
p2495
aI82695
aI61454
aI00
aF8040.0
aF3940.0
aF8015.0
aF14717.0
aF7964.0
aF9555.0
aF9083.0
aF2859.0
aF4637.0
aF13885.0
ag2488
aI5
ag2491
aV3teku0415
p2496
aI81696
aI62960
aI00
aF1203.0
aF45.0
aF3208.0
aF8001.0
aF11181.0
aF12918.0
aF8759.0
aF10047.0
aF17169.0
aF9165.0
aV\u3051\u3084\u304d+1_3
p2497
aI5
ag15
(S'\x07\xdf\x0b\x01'
p2498
tp2499
Rp2500
aV3teku0416
p2501
aI122054
aI98611
aI01
aF15324.0
aF9122.0
aF20498.0
aF8558.0
aF5600.0
aF10674.0
aF13368.0
aF13989.0
aF12344.0
aF12577.0
ag2497
aI5
ag2500
aV3teku0417
p2502
aI79321
aI62271
aI01
aF14354.0
aF4817.0
aF2567.0
aF16420.0
aF9402.0
aF8012.0
aF7599.0
aF6578.0
aF6034.0
aF3538.0
ag2497
aI5
ag2500
aV3teku0418
p2503
aI102824
aI72353
aI01
aF5366.0
aF5386.0
aF10572.0
aF3122.0
aF14175.0
aF6796.0
aF15634.0
aF12808.0
aF13982.0
aF14983.0
ag2497
aI5
ag2500
aV3teku0419
p2504
aI46913
aI45428
aI01
aF4964.0
aF5100.0
aF5365.0
aF4488.0
aF4369.0
aF4608.0
aF4734.0
aF5800.0
aF3785.0
aF3700.0
ag2497
aI5
ag2500
aV3teku0420
p2505
aI28417
aI25569
aI01
aF897.0
aF511.0
aF3942.0
aF2078.0
aF2395.0
aF3506.0
aF4301.0
aF651.0
aF1517.0
aF8619.0
aV\u30bf\u30a4\u30ac\u30fc\u30b9_3
p2506
aI1
ag15
(S'\x07\xdf\x0b\x01'
p2507
tp2508
Rp2509
aV3teku0421
p2510
aI0
aI0
aNaF0.0
aF0.0
aF0.0
aF0.0
aF0.0
aF0.0
aF0.0
aF0.0
aF0.0
aF0.0
aV\u307e\u307f\u3061\u3083\u3093_3
p2511
aI1
ag15
(S'\x07\xdf\x0b\x01'
p2512
tp2513
Rp2514
aV3teku0422
p2515
aI0
aI0
aNaF0.0
aF0.0
aF0.0
aF0.0
aF0.0
aF0.0
aF0.0
aF0.0
aF0.0
aF0.0
aV\u7537\uff13\u4eba\u7d44_3
p2516
aI3
ag15
(S'\x07\xdf\x0b\x01'
p2517
tp2518
Rp2519
aV3teku0423
p2520
aI0
aI0
aNaF0.0
aF0.0
aF0.0
aF0.0
aF0.0
aF0.0
aF0.0
aF0.0
aF0.0
aF0.0
ag2516
aI3
ag2519
aV3teku0424
p2521
aI0
aI0
aNaF0.0
aF0.0
aF0.0
aF0.0
aF0.0
aF0.0
aF0.0
aF0.0
aF0.0
aF0.0
ag2516
aI3
ag2519
aV3teku0425
p2522
aI0
aI0
aNaF0.0
aF0.0
aF0.0
aF0.0
aF0.0
aF0.0
aF0.0
aF0.0
aF0.0
aF0.0
aV\u30d1\u30fc\u5b50\u2019\uff33_3
p2523
aI5
ag15
(S'\x07\xdf\x0b\x01'
p2524
tp2525
Rp2526
aV3teku0426
p2527
aI66867
aI52825
aNaF5964.0
aF4110.0
aF9456.0
aF8754.0
aF4328.0
aF4769.0
aF11852.0
aF2924.0
aF4391.0
aF10319.0
ag2523
aI5
ag2526
aV3teku0427
p2528
aI52783
aI38313
aNaF2117.0
aF7909.0
aF10666.0
aF9876.0
aF3714.0
aF2780.0
aF192.0
aF4108.0
aF6790.0
aF4631.0
ag2523
aI5
ag2526
aV3teku0428
p2529
aI58984
aI44581
aNaF3527.0
aF4550.0
aF11315.0
aF1883.0
aF5376.0
aF7726.0
aF8020.0
aF4063.0
aF4732.0
aF7792.0
ag2523
aI5
ag2526
aV3teku0429
p2530
aI108302
aI87543
aNaF1423.0
aF6593.0
aF11314.0
aF12603.0
aF13002.0
aF15006.0
aF17220.0
aF10050.0
aF10930.0
aF10161.0
ag2523
aI5
ag2526
aV3teku0430
p2531
aI31277
aI22126
aNaF6157.0
aF759.0
aF985.0
aF1911.0
aF1451.0
aF1464.0
aF9371.0
aF2898.0
aF5086.0
aF1195.0
aV\u5143\u6c17\u304b\u3044
p2532
aI3
ag15
(S'\x07\xdf\x0b\x01'
p2533
tp2534
Rp2535
aV3teku0431
p2536
aI0
aI0
aNaF0.0
aF0.0
aF0.0
aF0.0
aF0.0
aF0.0
aF0.0
aF0.0
aF0.0
aF0.0
ag2532
aI3
ag2535
aV3teku0432
p2537
aI0
aI0
aNaF0.0
aF0.0
aF0.0
aF0.0
aF0.0
aF0.0
aF0.0
aF0.0
aF0.0
aF0.0
ag2532
aI3
ag2535
aV3teku0433
p2538
aI0
aI0
aNaF0.0
aF0.0
aF0.0
aF0.0
aF0.0
aF0.0
aF0.0
aF0.0
aF0.0
aF0.0
aV\u30b7\u30b2\u3061\u3083\u3093_3
p2539
aI1
ag15
(S'\x07\xdf\x0b\x01'
p2540
tp2541
Rp2542
aV3teku0434
p2543
aI69619
aI50134
aNaF8273.0
aF5540.0
aF14398.0
aF7071.0
aF10187.0
aF4829.0
aF2706.0
aF11145.0
aF2620.0
aF2850.0
aVTeam\u30b9\u30fc\u30d1\u30fc\u3072\u3068\u3057\u541b
p2544
aI5
ag15
(S'\x07\xdf\x0b\x01'
p2545
tp2546
Rp2547
aV3teku0435
p2548
aI46375
aI34329
aNaF8810.0
aF2090.0
aF6367.0
aF2934.0
aF1965.0
aF2452.0
aF1494.0
aF16387.0
aF1770.0
aF2106.0
ag2544
aI5
ag2547
aV3teku0436
p2549
aI116885
aI110180
aNaF28895.0
aF791.0
aF16263.0
aF10627.0
aF1710.0
aF25296.0
aF9775.0
aF17880.0
aF1910.0
aF3738.0
ag2544
aI5
ag2547
aV3teku0437
p2550
aI0
aI0
aNaF0.0
aF0.0
aF0.0
aF0.0
aF0.0
aF0.0
aF0.0
aF0.0
aF0.0
aF0.0
ag2544
aI5
ag2547
aV3teku0438
p2551
aI41570
aI36135
aNaF5552.0
aF2901.0
aF6255.0
aF5498.0
aF4659.0
aF1548.0
aF7742.0
aF291.0
aF2304.0
aF4820.0
ag2544
aI5
ag2547
aV3teku0439
p2552
aI0
aI0
aNaF0.0
aF0.0
aF0.0
aF0.0
aF0.0
aF0.0
aF0.0
aF0.0
aF0.0
aF0.0
aV\u5de6\u5229\u304d
p2553
aI1
ag15
(S'\x07\xdf\x0b\x01'
p2554
tp2555
Rp2556
aV3teku0440
p2557
aI144866
aI118256
aI01
aF43028.0
aF8831.0
aF25049.0
aF4615.0
aF16858.0
aF13568.0
aF25259.0
aF0.0
aF3953.0
aF3705.0
aV\u30c1\u30fc\u30e0AOI
p2558
aI3
ag15
(S'\x07\xdf\x0b\x01'
p2559
tp2560
Rp2561
aV3teku0441
p2562
aI0
aI0
aNaF0.0
aF0.0
aF0.0
aF0.0
aF0.0
aF0.0
aF0.0
aF0.0
aF0.0
aF0.0
ag2558
aI3
ag2561
aV3teku0442
p2563
aI0
aI0
aNaF0.0
aF0.0
aF0.0
aF0.0
aF0.0
aF0.0
aF0.0
aF0.0
aF0.0
aF0.0
ag2558
aI3
ag2561
aV3teku0443
p2564
aI0
aI0
aNaF0.0
aF0.0
aF0.0
aF0.0
aF0.0
aF0.0
aF0.0
aF0.0
aF0.0
aF0.0
aV\u30b3\u30f3\u30ac\u30fc\u30d7\u30a2\u30f3
p2565
aI1
ag15
(S'\x07\xdf\x0b\x01'
p2566
tp2567
Rp2568
aV3teku0444
p2569
aI0
aI0
aNaF0.0
aF0.0
aF0.0
aF0.0
aF0.0
aF0.0
aF0.0
aF0.0
aF0.0
aF0.0
aV\u30a4\u30de\u30e0\u30e9
p2570
aI3
ag15
(S'\x07\xdf\x0b\x01'
p2571
tp2572
Rp2573
aV3teku0445
p2574
aI0
aI0
aNaF0.0
aF0.0
aF0.0
aF0.0
aF0.0
aF0.0
aF0.0
aF0.0
aF0.0
aF0.0
ag2570
aI3
ag2573
aV3teku0446
p2575
aI0
aI0
aNaF0.0
aF0.0
aF0.0
aF0.0
aF0.0
aF0.0
aF0.0
aF0.0
aF0.0
aF0.0
ag2570
aI3
ag2573
aV3teku0447
p2576
aI0
aI0
aNaF0.0
aF0.0
aF0.0
aF0.0
aF0.0
aF0.0
aF0.0
aF0.0
aF0.0
aF0.0
aV\u3084\u308b\u305e_3
p2577
aI1
ag15
(S'\x07\xdf\x0b\x01'
p2578
tp2579
Rp2580
aV3teku0448
p2581
aI0
aI0
aNaF0.0
aF0.0
aF0.0
aF0.0
aF0.0
aF0.0
aF0.0
aF0.0
aF0.0
aF0.0
aV\u934b\u592a\u90ce_3
p2582
aI5
ag15
(S'\x07\xdf\x0b\x01'
p2583
tp2584
Rp2585
aV3teku0449
p2586
aI74250
aI58844
aNaF9367.0
aF6849.0
aF6910.0
aF6947.0
aF14803.0
aF7379.0
aF8119.0
aF4132.0
aF1829.0
aF7915.0
ag2582
aI5
ag2585
aV3teku0450
p2587
aI69216
aI50057
aNaF11103.0
aF6600.0
aF6000.0
aF8449.0
aF10123.0
aF8978.0
aF7802.0
aF335.0
aF2973.0
aF6853.0
ag2582
aI5
ag2585
aV3teku0451
p2588
aI56089
aI40372
aNaF3521.0
aF5446.0
aF10253.0
aF6616.0
aF5739.0
aF5319.0
aF5007.0
aF2639.0
aF8039.0
aF3510.0
ag2582
aI5
ag2585
aV3teku0452
p2589
aI73423
aI53711
aNaF6100.0
aF5775.0
aF6496.0
aF12397.0
aF4269.0
aF8600.0
aF14174.0
aF4914.0
aF4644.0
aF6054.0
ag2582
aI5
ag2585
aV3teku0453
p2590
aI64051
aI50117
aNaF5635.0
aF1636.0
aF8322.0
aF5443.0
aF6170.0
aF11961.0
aF5933.0
aF6230.0
aF7542.0
aF5179.0
aV\u5341\u52dd\u725b\u4e73
p2591
aI3
ag15
(S'\x07\xdf\x0b\x01'
p2592
tp2593
Rp2594
aV3teku0456
p2595
aI68037
aI57352
aI01
aF5497.0
aF0.0
aF12361.0
aF9586.0
aF7726.0
aF6832.0
aF5988.0
aF8438.0
aF0.0
aF11609.0
ag2591
aI3
ag2594
aV3teku0457
p2596
aI54233
aI56080
aI01
aF7395.0
aF2804.0
aF13842.0
aF7071.0
aF14409.0
aF4331.0
aF937.0
aF1852.0
aF276.0
aF1316.0
ag2591
aI3
ag2594
aV3teku0458
p2597
aI64311
aI50275
aI01
aF9401.0
aF12117.0
aF15842.0
aF5578.0
aF4740.0
aF6518.0
aF4136.0
aF5979.0
aF0.0
aF0.0
aVY\u512a\u99ff
p2598
aI1
ag15
(S'\x07\xdf\x0b\x01'
p2599
tp2600
Rp2601
aV3teku0459
p2602
aI67807
aI47997
aNaF7747.0
aF6890.0
aF7867.0
aF9787.0
aF7223.0
aF7265.0
aF4588.0
aF4501.0
aF4873.0
aF7066.0
aV\u3059\u305a\u304d
p2603
aI1
ag15
(S'\x07\xdf\x0b\x01'
p2604
tp2605
Rp2606
aV3teku0499
p2607
aI61493
aI42786
aI00
aF2699.0
aF1093.0
aF7861.0
aF5442.0
aF11112.0
aF8675.0
aF3901.0
aF1095.0
aF9148.0
aF10467.0
atp2608
b.